

Microchip MPLAB XC8 Assembler V2.50 build 20240725155939 
                                                                                               Sun Jan 12 12:59:44 2025

Microchip MPLAB XC8 C Compiler v2.50 (Free license) build 20240725155939 Og1 
     1                           	processor	18F4520
     2                           	fnconf	rparam,??,?,0
     3                           	pagewidth 120
     4                           	opt	flic
     5                           	psect	idataBANK0,global,class=CODE,space=0,delta=1,noexec
     6                           	psect	idataBANK1,global,class=CODE,space=0,delta=1,noexec
     7                           	psect	smallconst,global,reloc=2,class=SMALLCONST,space=0,delta=1,noexec
     8                           	psect	cinit,global,reloc=2,class=CODE,space=0,delta=1
     9                           	psect	bssCOMRAM,global,class=COMRAM,space=1,delta=1,lowdata,noexec
    10                           	psect	bssBANK0,global,class=BANK0,space=1,delta=1,lowdata,noexec
    11                           	psect	dataBANK0,global,class=BANK0,space=1,delta=1,lowdata,noexec
    12                           	psect	bssBANK1,global,class=BANK1,space=1,delta=1,lowdata,noexec
    13                           	psect	dataBANK1,global,class=BANK1,space=1,delta=1,lowdata,noexec
    14                           	psect	bssBIGRAM,global,class=BIGRAM,space=1,delta=1,noexec
    15                           	psect	cstackBANK1,global,class=BANK1,space=1,delta=1,lowdata,noexec
    16                           	psect	cstackBANK0,global,class=BANK0,space=1,delta=1,lowdata,noexec
    17                           	psect	cstackCOMRAM,global,class=COMRAM,space=1,delta=1,lowdata,noexec
    18                           	psect	text0,global,reloc=2,class=CODE,space=0,delta=1
    19                           	psect	text1,global,reloc=2,class=CODE,space=0,delta=1
    20                           	psect	text2,global,reloc=2,class=CODE,space=0,delta=1
    21                           	psect	text3,global,reloc=2,class=CODE,space=0,delta=1
    22                           	psect	text4,global,reloc=2,class=CODE,space=0,delta=1
    23                           	psect	text5,global,reloc=2,class=CODE,space=0,delta=1
    24                           	psect	text6,global,reloc=2,class=CODE,space=0,delta=1
    25                           	psect	text7,global,reloc=2,class=CODE,space=0,delta=1
    26                           	psect	text8,global,reloc=2,class=CODE,space=0,delta=1
    27                           	psect	text9,global,reloc=2,class=CODE,space=0,delta=1
    28                           	psect	text10,global,reloc=2,class=CODE,space=0,delta=1
    29                           	psect	text11,global,reloc=2,class=CODE,space=0,delta=1
    30                           	psect	text12,global,reloc=2,class=CODE,space=0,delta=1,group=1
    31                           	psect	text13,global,reloc=2,class=CODE,space=0,delta=1,group=1
    32                           	psect	text14,global,reloc=2,class=CODE,space=0,delta=1,group=1
    33                           	psect	text15,global,reloc=2,class=CODE,space=0,delta=1,group=1
    34                           	psect	text16,global,reloc=2,class=CODE,space=0,delta=1,group=1
    35                           	psect	text17,global,reloc=2,class=CODE,space=0,delta=1
    36                           	psect	text18,global,reloc=2,class=CODE,space=0,delta=1
    37                           	psect	text19,global,reloc=2,class=CODE,space=0,delta=1
    38                           	psect	text20,global,reloc=2,class=CODE,space=0,delta=1
    39                           	psect	text21,global,reloc=2,class=CODE,space=0,delta=1
    40                           	psect	text22,global,reloc=2,class=CODE,space=0,delta=1
    41                           	psect	intcodelo,global,reloc=2,class=CODE,space=0,delta=1
    42                           	psect	text24,global,reloc=2,class=CODE,space=0,delta=1
    43                           	psect	text25,global,reloc=2,class=CODE,space=0,delta=1
    44                           	psect	text26,global,reloc=2,class=CODE,space=0,delta=1
    45                           	psect	text27,global,reloc=2,class=CODE,space=0,delta=1
    46                           	psect	text28,global,reloc=2,class=CODE,space=0,delta=1
    47                           	psect	text29,global,reloc=2,class=CODE,space=0,delta=1
    48                           	psect	text30,global,reloc=2,class=CODE,space=0,delta=1
    49                           	psect	text31,global,reloc=2,class=CODE,space=0,delta=1,group=2
    50                           	psect	text32,global,reloc=2,class=CODE,space=0,delta=1
    51                           	psect	text33,global,reloc=2,class=CODE,space=0,delta=1
    52                           	psect	text34,global,reloc=2,class=CODE,space=0,delta=1
    53                           	psect	text35,global,reloc=2,class=CODE,space=0,delta=1
    54                           	psect	text36,global,reloc=2,class=CODE,space=0,delta=1
    55                           	psect	intcode,global,reloc=2,class=CODE,space=0,delta=1
    56                           	psect	intcode_body,global,reloc=2,class=CODE,space=0,delta=1
    57                           	psect	intsave_regs,global,class=BIGRAM,space=1,delta=1,noexec
    58                           	psect	rparam,global,class=COMRAM,space=1,delta=1,noexec
    59                           	psect	temp,global,ovrld,common,class=COMRAM,space=1,delta=1,lowdata
    60                           	psect	config,global,abs,ovrld,class=CONFIG,space=4,delta=1,noexec
    61   000000                     
    62                           ; Generated 17/10/2023 GMT
    63                           ; 
    64                           ; Copyright © 2023, Microchip Technology Inc. and its subsidiaries ("Microchip")
    65                           ; All rights reserved.
    66                           ; 
    67                           ; This software is developed by Microchip Technology Inc. and its subsidiaries ("Microch
      +                          ip").
    68                           ; 
    69                           ; Redistribution and use in source and binary forms, with or without modification, are
    70                           ; permitted provided that the following conditions are met:
    71                           ; 
    72                           ;     1. Redistributions of source code must retain the above copyright notice, this lis
      +                          t of
    73                           ;        conditions and the following disclaimer.
    74                           ; 
    75                           ;     2. Redistributions in binary form must reproduce the above copyright notice, this 
      +                          list
    76                           ;        of conditions and the following disclaimer in the documentation and/or other
    77                           ;        materials provided with the distribution. Publication is not required when
    78                           ;        this file is used in an embedded application.
    79                           ; 
    80                           ;     3. Microchip's name may not be used to endorse or promote products derived from th
      +                          is
    81                           ;        software without specific prior written permission.
    82                           ; 
    83                           ; THIS SOFTWARE IS PROVIDED BY MICROCHIP "AS IS" AND ANY EXPRESS OR IMPLIED WARRANTIES,
    84                           ; INCLUDING, BUT NOT LIMITED TO, THE IMPLIED WARRANTIES OF MERCHANTABILITY AND FITNESS F
      +                          OR
    85                           ; PURPOSE ARE DISCLAIMED.  IN NO EVENT SHALL MICROCHIP BE LIABLE FOR ANY DIRECT, INDIREC
      +                          T,
    86                           ; INCIDENTAL, SPECIAL, EXEMPLARY, OR CONSEQUENTIAL DAMAGES (INCLUDING BUT NOT LIMITED TO
    87                           ; PROCUREMENT OF SUBSTITUTE GOODS OR SERVICES; LOSS OF USE, DATA OR PROFITS; OR BUSINESS
    88                           ; INTERRUPTION) HOWSOEVER CAUSED AND ON ANY THEORY OF LIABILITY, WHETHER IN CONTRACT, ST
      +                          RICT
    89                           ; LIABILITY, OR TORT (INCLUDING NEGLIGENCE OR OTHERWISE) ARISING IN ANY WAY OUT OF THE U
      +                          SE OF
    90                           ; THIS SOFTWARE, EVEN IF ADVISED OF THE POSSIBILITY OF SUCH DAMAGE.
    91                           ; 
    92                           ; 
    93                           ; Code-generator required, PIC18F4520 Definitions
    94                           ; 
    95                           ; SFR Addresses
    96   000FE0                     bsr             equ	4064
    97   000FE9                     fsr0            equ	4073
    98   000FEA                     fsr0h           equ	4074
    99   000FE9                     fsr0l           equ	4073
   100   000FE1                     fsr1            equ	4065
   101   000FE2                     fsr1h           equ	4066
   102   000FE1                     fsr1l           equ	4065
   103   000FD9                     fsr2            equ	4057
   104   000FDA                     fsr2h           equ	4058
   105   000FD9                     fsr2l           equ	4057
   106   000FEF                     indf0           equ	4079
   107   000FE7                     indf1           equ	4071
   108   000FDF                     indf2           equ	4063
   109   000FF2                     intcon          equ	4082
   110   000000                     nvmcon          equ	0
   111   000FF9                     pcl             equ	4089
   112   000FFA                     pclath          equ	4090
   113   000FFB                     pclatu          equ	4091
   114   000FEB                     plusw0          equ	4075
   115   000FE3                     plusw1          equ	4067
   116   000FDB                     plusw2          equ	4059
   117   000FED                     postdec0        equ	4077
   118   000FE5                     postdec1        equ	4069
   119   000FDD                     postdec2        equ	4061
   120   000FEE                     postinc0        equ	4078
   121   000FE6                     postinc1        equ	4070
   122   000FDE                     postinc2        equ	4062
   123   000FEC                     preinc0         equ	4076
   124   000FE4                     preinc1         equ	4068
   125   000FDC                     preinc2         equ	4060
   126   000FF3                     prod            equ	4083
   127   000FF4                     prodh           equ	4084
   128   000FF3                     prodl           equ	4083
   129   000FD8                     status          equ	4056
   130   000FF5                     tablat          equ	4085
   131   000FF6                     tblptr          equ	4086
   132   000FF7                     tblptrh         equ	4087
   133   000FF6                     tblptrl         equ	4086
   134   000FF8                     tblptru         equ	4088
   135   000FFD                     tosl            equ	4093
   136   000FE8                     wreg            equ	4072
   137   000F80                     PORTA           equ	3968	;# 
   138   000F81                     PORTB           equ	3969	;# 
   139   000F82                     PORTC           equ	3970	;# 
   140   000F83                     PORTD           equ	3971	;# 
   141   000F84                     PORTE           equ	3972	;# 
   142   000F89                     LATA            equ	3977	;# 
   143   000F8A                     LATB            equ	3978	;# 
   144   000F8B                     LATC            equ	3979	;# 
   145   000F8C                     LATD            equ	3980	;# 
   146   000F8D                     LATE            equ	3981	;# 
   147   000F92                     TRISA           equ	3986	;# 
   148   000F92                     DDRA            equ	3986	;# 
   149   000F93                     TRISB           equ	3987	;# 
   150   000F93                     DDRB            equ	3987	;# 
   151   000F94                     TRISC           equ	3988	;# 
   152   000F94                     DDRC            equ	3988	;# 
   153   000F95                     TRISD           equ	3989	;# 
   154   000F95                     DDRD            equ	3989	;# 
   155   000F96                     TRISE           equ	3990	;# 
   156   000F96                     DDRE            equ	3990	;# 
   157   000F9B                     OSCTUNE         equ	3995	;# 
   158   000F9D                     PIE1            equ	3997	;# 
   159   000F9E                     PIR1            equ	3998	;# 
   160   000F9F                     IPR1            equ	3999	;# 
   161   000FA0                     PIE2            equ	4000	;# 
   162   000FA1                     PIR2            equ	4001	;# 
   163   000FA2                     IPR2            equ	4002	;# 
   164   000FA6                     EECON1          equ	4006	;# 
   165   000FA7                     EECON2          equ	4007	;# 
   166   000FA8                     EEDATA          equ	4008	;# 
   167   000FA9                     EEADR           equ	4009	;# 
   168   000FAB                     RCSTA           equ	4011	;# 
   169   000FAB                     RCSTA1          equ	4011	;# 
   170   000FAC                     TXSTA           equ	4012	;# 
   171   000FAC                     TXSTA1          equ	4012	;# 
   172   000FAD                     TXREG           equ	4013	;# 
   173   000FAD                     TXREG1          equ	4013	;# 
   174   000FAE                     RCREG           equ	4014	;# 
   175   000FAE                     RCREG1          equ	4014	;# 
   176   000FAF                     SPBRG           equ	4015	;# 
   177   000FAF                     SPBRG1          equ	4015	;# 
   178   000FB0                     SPBRGH          equ	4016	;# 
   179   000FB1                     T3CON           equ	4017	;# 
   180   000FB2                     TMR3            equ	4018	;# 
   181   000FB2                     TMR3L           equ	4018	;# 
   182   000FB3                     TMR3H           equ	4019	;# 
   183   000FB4                     CMCON           equ	4020	;# 
   184   000FB5                     CVRCON          equ	4021	;# 
   185   000FB6                     ECCP1AS         equ	4022	;# 
   186   000FB6                     ECCPAS          equ	4022	;# 
   187   000FB7                     PWM1CON         equ	4023	;# 
   188   000FB7                     ECCP1DEL        equ	4023	;# 
   189   000FB8                     BAUDCON         equ	4024	;# 
   190   000FB8                     BAUDCTL         equ	4024	;# 
   191   000FBA                     CCP2CON         equ	4026	;# 
   192   000FBB                     CCPR2           equ	4027	;# 
   193   000FBB                     CCPR2L          equ	4027	;# 
   194   000FBC                     CCPR2H          equ	4028	;# 
   195   000FBD                     CCP1CON         equ	4029	;# 
   196   000FBE                     CCPR1           equ	4030	;# 
   197   000FBE                     CCPR1L          equ	4030	;# 
   198   000FBF                     CCPR1H          equ	4031	;# 
   199   000FC0                     ADCON2          equ	4032	;# 
   200   000FC1                     ADCON1          equ	4033	;# 
   201   000FC2                     ADCON0          equ	4034	;# 
   202   000FC3                     ADRES           equ	4035	;# 
   203   000FC3                     ADRESL          equ	4035	;# 
   204   000FC4                     ADRESH          equ	4036	;# 
   205   000FC5                     SSPCON2         equ	4037	;# 
   206   000FC6                     SSPCON1         equ	4038	;# 
   207   000FC7                     SSPSTAT         equ	4039	;# 
   208   000FC8                     SSPADD          equ	4040	;# 
   209   000FC9                     SSPBUF          equ	4041	;# 
   210   000FCA                     T2CON           equ	4042	;# 
   211   000FCB                     PR2             equ	4043	;# 
   212   000FCB                     MEMCON          equ	4043	;# 
   213   000FCC                     TMR2            equ	4044	;# 
   214   000FCD                     T1CON           equ	4045	;# 
   215   000FCE                     TMR1            equ	4046	;# 
   216   000FCE                     TMR1L           equ	4046	;# 
   217   000FCF                     TMR1H           equ	4047	;# 
   218   000FD0                     RCON            equ	4048	;# 
   219   000FD1                     WDTCON          equ	4049	;# 
   220   000FD2                     HLVDCON         equ	4050	;# 
   221   000FD2                     LVDCON          equ	4050	;# 
   222   000FD3                     OSCCON          equ	4051	;# 
   223   000FD5                     T0CON           equ	4053	;# 
   224   000FD6                     TMR0            equ	4054	;# 
   225   000FD6                     TMR0L           equ	4054	;# 
   226   000FD7                     TMR0H           equ	4055	;# 
   227   000FD8                     STATUS          equ	4056	;# 
   228   000FD9                     FSR2            equ	4057	;# 
   229   000FD9                     FSR2L           equ	4057	;# 
   230   000FDA                     FSR2H           equ	4058	;# 
   231   000FDB                     PLUSW2          equ	4059	;# 
   232   000FDC                     PREINC2         equ	4060	;# 
   233   000FDD                     POSTDEC2        equ	4061	;# 
   234   000FDE                     POSTINC2        equ	4062	;# 
   235   000FDF                     INDF2           equ	4063	;# 
   236   000FE0                     BSR             equ	4064	;# 
   237   000FE1                     FSR1            equ	4065	;# 
   238   000FE1                     FSR1L           equ	4065	;# 
   239   000FE2                     FSR1H           equ	4066	;# 
   240   000FE3                     PLUSW1          equ	4067	;# 
   241   000FE4                     PREINC1         equ	4068	;# 
   242   000FE5                     POSTDEC1        equ	4069	;# 
   243   000FE6                     POSTINC1        equ	4070	;# 
   244   000FE7                     INDF1           equ	4071	;# 
   245   000FE8                     WREG            equ	4072	;# 
   246   000FE9                     FSR0            equ	4073	;# 
   247   000FE9                     FSR0L           equ	4073	;# 
   248   000FEA                     FSR0H           equ	4074	;# 
   249   000FEB                     PLUSW0          equ	4075	;# 
   250   000FEC                     PREINC0         equ	4076	;# 
   251   000FED                     POSTDEC0        equ	4077	;# 
   252   000FEE                     POSTINC0        equ	4078	;# 
   253   000FEF                     INDF0           equ	4079	;# 
   254   000FF0                     INTCON3         equ	4080	;# 
   255   000FF1                     INTCON2         equ	4081	;# 
   256   000FF2                     INTCON          equ	4082	;# 
   257   000FF3                     PROD            equ	4083	;# 
   258   000FF3                     PRODL           equ	4083	;# 
   259   000FF4                     PRODH           equ	4084	;# 
   260   000FF5                     TABLAT          equ	4085	;# 
   261   000FF6                     TBLPTR          equ	4086	;# 
   262   000FF6                     TBLPTRL         equ	4086	;# 
   263   000FF7                     TBLPTRH         equ	4087	;# 
   264   000FF8                     TBLPTRU         equ	4088	;# 
   265   000FF9                     PCLAT           equ	4089	;# 
   266   000FF9                     PC              equ	4089	;# 
   267   000FF9                     PCL             equ	4089	;# 
   268   000FFA                     PCLATH          equ	4090	;# 
   269   000FFB                     PCLATU          equ	4091	;# 
   270   000FFC                     STKPTR          equ	4092	;# 
   271   000FFD                     TOS             equ	4093	;# 
   272   000FFD                     TOSL            equ	4093	;# 
   273   000FFE                     TOSH            equ	4094	;# 
   274   000FFF                     TOSU            equ	4095	;# 
   275   000F80                     PORTA           equ	3968	;# 
   276   000F81                     PORTB           equ	3969	;# 
   277   000F82                     PORTC           equ	3970	;# 
   278   000F83                     PORTD           equ	3971	;# 
   279   000F84                     PORTE           equ	3972	;# 
   280   000F89                     LATA            equ	3977	;# 
   281   000F8A                     LATB            equ	3978	;# 
   282   000F8B                     LATC            equ	3979	;# 
   283   000F8C                     LATD            equ	3980	;# 
   284   000F8D                     LATE            equ	3981	;# 
   285   000F92                     TRISA           equ	3986	;# 
   286   000F92                     DDRA            equ	3986	;# 
   287   000F93                     TRISB           equ	3987	;# 
   288   000F93                     DDRB            equ	3987	;# 
   289   000F94                     TRISC           equ	3988	;# 
   290   000F94                     DDRC            equ	3988	;# 
   291   000F95                     TRISD           equ	3989	;# 
   292   000F95                     DDRD            equ	3989	;# 
   293   000F96                     TRISE           equ	3990	;# 
   294   000F96                     DDRE            equ	3990	;# 
   295   000F9B                     OSCTUNE         equ	3995	;# 
   296   000F9D                     PIE1            equ	3997	;# 
   297   000F9E                     PIR1            equ	3998	;# 
   298   000F9F                     IPR1            equ	3999	;# 
   299   000FA0                     PIE2            equ	4000	;# 
   300   000FA1                     PIR2            equ	4001	;# 
   301   000FA2                     IPR2            equ	4002	;# 
   302   000FA6                     EECON1          equ	4006	;# 
   303   000FA7                     EECON2          equ	4007	;# 
   304   000FA8                     EEDATA          equ	4008	;# 
   305   000FA9                     EEADR           equ	4009	;# 
   306   000FAB                     RCSTA           equ	4011	;# 
   307   000FAB                     RCSTA1          equ	4011	;# 
   308   000FAC                     TXSTA           equ	4012	;# 
   309   000FAC                     TXSTA1          equ	4012	;# 
   310   000FAD                     TXREG           equ	4013	;# 
   311   000FAD                     TXREG1          equ	4013	;# 
   312   000FAE                     RCREG           equ	4014	;# 
   313   000FAE                     RCREG1          equ	4014	;# 
   314   000FAF                     SPBRG           equ	4015	;# 
   315   000FAF                     SPBRG1          equ	4015	;# 
   316   000FB0                     SPBRGH          equ	4016	;# 
   317   000FB1                     T3CON           equ	4017	;# 
   318   000FB2                     TMR3            equ	4018	;# 
   319   000FB2                     TMR3L           equ	4018	;# 
   320   000FB3                     TMR3H           equ	4019	;# 
   321   000FB4                     CMCON           equ	4020	;# 
   322   000FB5                     CVRCON          equ	4021	;# 
   323   000FB6                     ECCP1AS         equ	4022	;# 
   324   000FB6                     ECCPAS          equ	4022	;# 
   325   000FB7                     PWM1CON         equ	4023	;# 
   326   000FB7                     ECCP1DEL        equ	4023	;# 
   327   000FB8                     BAUDCON         equ	4024	;# 
   328   000FB8                     BAUDCTL         equ	4024	;# 
   329   000FBA                     CCP2CON         equ	4026	;# 
   330   000FBB                     CCPR2           equ	4027	;# 
   331   000FBB                     CCPR2L          equ	4027	;# 
   332   000FBC                     CCPR2H          equ	4028	;# 
   333   000FBD                     CCP1CON         equ	4029	;# 
   334   000FBE                     CCPR1           equ	4030	;# 
   335   000FBE                     CCPR1L          equ	4030	;# 
   336   000FBF                     CCPR1H          equ	4031	;# 
   337   000FC0                     ADCON2          equ	4032	;# 
   338   000FC1                     ADCON1          equ	4033	;# 
   339   000FC2                     ADCON0          equ	4034	;# 
   340   000FC3                     ADRES           equ	4035	;# 
   341   000FC3                     ADRESL          equ	4035	;# 
   342   000FC4                     ADRESH          equ	4036	;# 
   343   000FC5                     SSPCON2         equ	4037	;# 
   344   000FC6                     SSPCON1         equ	4038	;# 
   345   000FC7                     SSPSTAT         equ	4039	;# 
   346   000FC8                     SSPADD          equ	4040	;# 
   347   000FC9                     SSPBUF          equ	4041	;# 
   348   000FCA                     T2CON           equ	4042	;# 
   349   000FCB                     PR2             equ	4043	;# 
   350   000FCB                     MEMCON          equ	4043	;# 
   351   000FCC                     TMR2            equ	4044	;# 
   352   000FCD                     T1CON           equ	4045	;# 
   353   000FCE                     TMR1            equ	4046	;# 
   354   000FCE                     TMR1L           equ	4046	;# 
   355   000FCF                     TMR1H           equ	4047	;# 
   356   000FD0                     RCON            equ	4048	;# 
   357   000FD1                     WDTCON          equ	4049	;# 
   358   000FD2                     HLVDCON         equ	4050	;# 
   359   000FD2                     LVDCON          equ	4050	;# 
   360   000FD3                     OSCCON          equ	4051	;# 
   361   000FD5                     T0CON           equ	4053	;# 
   362   000FD6                     TMR0            equ	4054	;# 
   363   000FD6                     TMR0L           equ	4054	;# 
   364   000FD7                     TMR0H           equ	4055	;# 
   365   000FD8                     STATUS          equ	4056	;# 
   366   000FD9                     FSR2            equ	4057	;# 
   367   000FD9                     FSR2L           equ	4057	;# 
   368   000FDA                     FSR2H           equ	4058	;# 
   369   000FDB                     PLUSW2          equ	4059	;# 
   370   000FDC                     PREINC2         equ	4060	;# 
   371   000FDD                     POSTDEC2        equ	4061	;# 
   372   000FDE                     POSTINC2        equ	4062	;# 
   373   000FDF                     INDF2           equ	4063	;# 
   374   000FE0                     BSR             equ	4064	;# 
   375   000FE1                     FSR1            equ	4065	;# 
   376   000FE1                     FSR1L           equ	4065	;# 
   377   000FE2                     FSR1H           equ	4066	;# 
   378   000FE3                     PLUSW1          equ	4067	;# 
   379   000FE4                     PREINC1         equ	4068	;# 
   380   000FE5                     POSTDEC1        equ	4069	;# 
   381   000FE6                     POSTINC1        equ	4070	;# 
   382   000FE7                     INDF1           equ	4071	;# 
   383   000FE8                     WREG            equ	4072	;# 
   384   000FE9                     FSR0            equ	4073	;# 
   385   000FE9                     FSR0L           equ	4073	;# 
   386   000FEA                     FSR0H           equ	4074	;# 
   387   000FEB                     PLUSW0          equ	4075	;# 
   388   000FEC                     PREINC0         equ	4076	;# 
   389   000FED                     POSTDEC0        equ	4077	;# 
   390   000FEE                     POSTINC0        equ	4078	;# 
   391   000FEF                     INDF0           equ	4079	;# 
   392   000FF0                     INTCON3         equ	4080	;# 
   393   000FF1                     INTCON2         equ	4081	;# 
   394   000FF2                     INTCON          equ	4082	;# 
   395   000FF3                     PROD            equ	4083	;# 
   396   000FF3                     PRODL           equ	4083	;# 
   397   000FF4                     PRODH           equ	4084	;# 
   398   000FF5                     TABLAT          equ	4085	;# 
   399   000FF6                     TBLPTR          equ	4086	;# 
   400   000FF6                     TBLPTRL         equ	4086	;# 
   401   000FF7                     TBLPTRH         equ	4087	;# 
   402   000FF8                     TBLPTRU         equ	4088	;# 
   403   000FF9                     PCLAT           equ	4089	;# 
   404   000FF9                     PC              equ	4089	;# 
   405   000FF9                     PCL             equ	4089	;# 
   406   000FFA                     PCLATH          equ	4090	;# 
   407   000FFB                     PCLATU          equ	4091	;# 
   408   000FFC                     STKPTR          equ	4092	;# 
   409   000FFD                     TOS             equ	4093	;# 
   410   000FFD                     TOSL            equ	4093	;# 
   411   000FFE                     TOSH            equ	4094	;# 
   412   000FFF                     TOSU            equ	4095	;# 
   413   000F80                     PORTA           equ	3968	;# 
   414   000F81                     PORTB           equ	3969	;# 
   415   000F82                     PORTC           equ	3970	;# 
   416   000F83                     PORTD           equ	3971	;# 
   417   000F84                     PORTE           equ	3972	;# 
   418   000F89                     LATA            equ	3977	;# 
   419   000F8A                     LATB            equ	3978	;# 
   420   000F8B                     LATC            equ	3979	;# 
   421   000F8C                     LATD            equ	3980	;# 
   422   000F8D                     LATE            equ	3981	;# 
   423   000F92                     TRISA           equ	3986	;# 
   424   000F92                     DDRA            equ	3986	;# 
   425   000F93                     TRISB           equ	3987	;# 
   426   000F93                     DDRB            equ	3987	;# 
   427   000F94                     TRISC           equ	3988	;# 
   428   000F94                     DDRC            equ	3988	;# 
   429   000F95                     TRISD           equ	3989	;# 
   430   000F95                     DDRD            equ	3989	;# 
   431   000F96                     TRISE           equ	3990	;# 
   432   000F96                     DDRE            equ	3990	;# 
   433   000F9B                     OSCTUNE         equ	3995	;# 
   434   000F9D                     PIE1            equ	3997	;# 
   435   000F9E                     PIR1            equ	3998	;# 
   436   000F9F                     IPR1            equ	3999	;# 
   437   000FA0                     PIE2            equ	4000	;# 
   438   000FA1                     PIR2            equ	4001	;# 
   439   000FA2                     IPR2            equ	4002	;# 
   440   000FA6                     EECON1          equ	4006	;# 
   441   000FA7                     EECON2          equ	4007	;# 
   442   000FA8                     EEDATA          equ	4008	;# 
   443   000FA9                     EEADR           equ	4009	;# 
   444   000FAB                     RCSTA           equ	4011	;# 
   445   000FAB                     RCSTA1          equ	4011	;# 
   446   000FAC                     TXSTA           equ	4012	;# 
   447   000FAC                     TXSTA1          equ	4012	;# 
   448   000FAD                     TXREG           equ	4013	;# 
   449   000FAD                     TXREG1          equ	4013	;# 
   450   000FAE                     RCREG           equ	4014	;# 
   451   000FAE                     RCREG1          equ	4014	;# 
   452   000FAF                     SPBRG           equ	4015	;# 
   453   000FAF                     SPBRG1          equ	4015	;# 
   454   000FB0                     SPBRGH          equ	4016	;# 
   455   000FB1                     T3CON           equ	4017	;# 
   456   000FB2                     TMR3            equ	4018	;# 
   457   000FB2                     TMR3L           equ	4018	;# 
   458   000FB3                     TMR3H           equ	4019	;# 
   459   000FB4                     CMCON           equ	4020	;# 
   460   000FB5                     CVRCON          equ	4021	;# 
   461   000FB6                     ECCP1AS         equ	4022	;# 
   462   000FB6                     ECCPAS          equ	4022	;# 
   463   000FB7                     PWM1CON         equ	4023	;# 
   464   000FB7                     ECCP1DEL        equ	4023	;# 
   465   000FB8                     BAUDCON         equ	4024	;# 
   466   000FB8                     BAUDCTL         equ	4024	;# 
   467   000FBA                     CCP2CON         equ	4026	;# 
   468   000FBB                     CCPR2           equ	4027	;# 
   469   000FBB                     CCPR2L          equ	4027	;# 
   470   000FBC                     CCPR2H          equ	4028	;# 
   471   000FBD                     CCP1CON         equ	4029	;# 
   472   000FBE                     CCPR1           equ	4030	;# 
   473   000FBE                     CCPR1L          equ	4030	;# 
   474   000FBF                     CCPR1H          equ	4031	;# 
   475   000FC0                     ADCON2          equ	4032	;# 
   476   000FC1                     ADCON1          equ	4033	;# 
   477   000FC2                     ADCON0          equ	4034	;# 
   478   000FC3                     ADRES           equ	4035	;# 
   479   000FC3                     ADRESL          equ	4035	;# 
   480   000FC4                     ADRESH          equ	4036	;# 
   481   000FC5                     SSPCON2         equ	4037	;# 
   482   000FC6                     SSPCON1         equ	4038	;# 
   483   000FC7                     SSPSTAT         equ	4039	;# 
   484   000FC8                     SSPADD          equ	4040	;# 
   485   000FC9                     SSPBUF          equ	4041	;# 
   486   000FCA                     T2CON           equ	4042	;# 
   487   000FCB                     PR2             equ	4043	;# 
   488   000FCB                     MEMCON          equ	4043	;# 
   489   000FCC                     TMR2            equ	4044	;# 
   490   000FCD                     T1CON           equ	4045	;# 
   491   000FCE                     TMR1            equ	4046	;# 
   492   000FCE                     TMR1L           equ	4046	;# 
   493   000FCF                     TMR1H           equ	4047	;# 
   494   000FD0                     RCON            equ	4048	;# 
   495   000FD1                     WDTCON          equ	4049	;# 
   496   000FD2                     HLVDCON         equ	4050	;# 
   497   000FD2                     LVDCON          equ	4050	;# 
   498   000FD3                     OSCCON          equ	4051	;# 
   499   000FD5                     T0CON           equ	4053	;# 
   500   000FD6                     TMR0            equ	4054	;# 
   501   000FD6                     TMR0L           equ	4054	;# 
   502   000FD7                     TMR0H           equ	4055	;# 
   503   000FD8                     STATUS          equ	4056	;# 
   504   000FD9                     FSR2            equ	4057	;# 
   505   000FD9                     FSR2L           equ	4057	;# 
   506   000FDA                     FSR2H           equ	4058	;# 
   507   000FDB                     PLUSW2          equ	4059	;# 
   508   000FDC                     PREINC2         equ	4060	;# 
   509   000FDD                     POSTDEC2        equ	4061	;# 
   510   000FDE                     POSTINC2        equ	4062	;# 
   511   000FDF                     INDF2           equ	4063	;# 
   512   000FE0                     BSR             equ	4064	;# 
   513   000FE1                     FSR1            equ	4065	;# 
   514   000FE1                     FSR1L           equ	4065	;# 
   515   000FE2                     FSR1H           equ	4066	;# 
   516   000FE3                     PLUSW1          equ	4067	;# 
   517   000FE4                     PREINC1         equ	4068	;# 
   518   000FE5                     POSTDEC1        equ	4069	;# 
   519   000FE6                     POSTINC1        equ	4070	;# 
   520   000FE7                     INDF1           equ	4071	;# 
   521   000FE8                     WREG            equ	4072	;# 
   522   000FE9                     FSR0            equ	4073	;# 
   523   000FE9                     FSR0L           equ	4073	;# 
   524   000FEA                     FSR0H           equ	4074	;# 
   525   000FEB                     PLUSW0          equ	4075	;# 
   526   000FEC                     PREINC0         equ	4076	;# 
   527   000FED                     POSTDEC0        equ	4077	;# 
   528   000FEE                     POSTINC0        equ	4078	;# 
   529   000FEF                     INDF0           equ	4079	;# 
   530   000FF0                     INTCON3         equ	4080	;# 
   531   000FF1                     INTCON2         equ	4081	;# 
   532   000FF2                     INTCON          equ	4082	;# 
   533   000FF3                     PROD            equ	4083	;# 
   534   000FF3                     PRODL           equ	4083	;# 
   535   000FF4                     PRODH           equ	4084	;# 
   536   000FF5                     TABLAT          equ	4085	;# 
   537   000FF6                     TBLPTR          equ	4086	;# 
   538   000FF6                     TBLPTRL         equ	4086	;# 
   539   000FF7                     TBLPTRH         equ	4087	;# 
   540   000FF8                     TBLPTRU         equ	4088	;# 
   541   000FF9                     PCLAT           equ	4089	;# 
   542   000FF9                     PC              equ	4089	;# 
   543   000FF9                     PCL             equ	4089	;# 
   544   000FFA                     PCLATH          equ	4090	;# 
   545   000FFB                     PCLATU          equ	4091	;# 
   546   000FFC                     STKPTR          equ	4092	;# 
   547   000FFD                     TOS             equ	4093	;# 
   548   000FFD                     TOSL            equ	4093	;# 
   549   000FFE                     TOSH            equ	4094	;# 
   550   000FFF                     TOSU            equ	4095	;# 
   551   000F80                     PORTA           equ	3968	;# 
   552   000F81                     PORTB           equ	3969	;# 
   553   000F82                     PORTC           equ	3970	;# 
   554   000F83                     PORTD           equ	3971	;# 
   555   000F84                     PORTE           equ	3972	;# 
   556   000F89                     LATA            equ	3977	;# 
   557   000F8A                     LATB            equ	3978	;# 
   558   000F8B                     LATC            equ	3979	;# 
   559   000F8C                     LATD            equ	3980	;# 
   560   000F8D                     LATE            equ	3981	;# 
   561   000F92                     TRISA           equ	3986	;# 
   562   000F92                     DDRA            equ	3986	;# 
   563   000F93                     TRISB           equ	3987	;# 
   564   000F93                     DDRB            equ	3987	;# 
   565   000F94                     TRISC           equ	3988	;# 
   566   000F94                     DDRC            equ	3988	;# 
   567   000F95                     TRISD           equ	3989	;# 
   568   000F95                     DDRD            equ	3989	;# 
   569   000F96                     TRISE           equ	3990	;# 
   570   000F96                     DDRE            equ	3990	;# 
   571   000F9B                     OSCTUNE         equ	3995	;# 
   572   000F9D                     PIE1            equ	3997	;# 
   573   000F9E                     PIR1            equ	3998	;# 
   574   000F9F                     IPR1            equ	3999	;# 
   575   000FA0                     PIE2            equ	4000	;# 
   576   000FA1                     PIR2            equ	4001	;# 
   577   000FA2                     IPR2            equ	4002	;# 
   578   000FA6                     EECON1          equ	4006	;# 
   579   000FA7                     EECON2          equ	4007	;# 
   580   000FA8                     EEDATA          equ	4008	;# 
   581   000FA9                     EEADR           equ	4009	;# 
   582   000FAB                     RCSTA           equ	4011	;# 
   583   000FAB                     RCSTA1          equ	4011	;# 
   584   000FAC                     TXSTA           equ	4012	;# 
   585   000FAC                     TXSTA1          equ	4012	;# 
   586   000FAD                     TXREG           equ	4013	;# 
   587   000FAD                     TXREG1          equ	4013	;# 
   588   000FAE                     RCREG           equ	4014	;# 
   589   000FAE                     RCREG1          equ	4014	;# 
   590   000FAF                     SPBRG           equ	4015	;# 
   591   000FAF                     SPBRG1          equ	4015	;# 
   592   000FB0                     SPBRGH          equ	4016	;# 
   593   000FB1                     T3CON           equ	4017	;# 
   594   000FB2                     TMR3            equ	4018	;# 
   595   000FB2                     TMR3L           equ	4018	;# 
   596   000FB3                     TMR3H           equ	4019	;# 
   597   000FB4                     CMCON           equ	4020	;# 
   598   000FB5                     CVRCON          equ	4021	;# 
   599   000FB6                     ECCP1AS         equ	4022	;# 
   600   000FB6                     ECCPAS          equ	4022	;# 
   601   000FB7                     PWM1CON         equ	4023	;# 
   602   000FB7                     ECCP1DEL        equ	4023	;# 
   603   000FB8                     BAUDCON         equ	4024	;# 
   604   000FB8                     BAUDCTL         equ	4024	;# 
   605   000FBA                     CCP2CON         equ	4026	;# 
   606   000FBB                     CCPR2           equ	4027	;# 
   607   000FBB                     CCPR2L          equ	4027	;# 
   608   000FBC                     CCPR2H          equ	4028	;# 
   609   000FBD                     CCP1CON         equ	4029	;# 
   610   000FBE                     CCPR1           equ	4030	;# 
   611   000FBE                     CCPR1L          equ	4030	;# 
   612   000FBF                     CCPR1H          equ	4031	;# 
   613   000FC0                     ADCON2          equ	4032	;# 
   614   000FC1                     ADCON1          equ	4033	;# 
   615   000FC2                     ADCON0          equ	4034	;# 
   616   000FC3                     ADRES           equ	4035	;# 
   617   000FC3                     ADRESL          equ	4035	;# 
   618   000FC4                     ADRESH          equ	4036	;# 
   619   000FC5                     SSPCON2         equ	4037	;# 
   620   000FC6                     SSPCON1         equ	4038	;# 
   621   000FC7                     SSPSTAT         equ	4039	;# 
   622   000FC8                     SSPADD          equ	4040	;# 
   623   000FC9                     SSPBUF          equ	4041	;# 
   624   000FCA                     T2CON           equ	4042	;# 
   625   000FCB                     PR2             equ	4043	;# 
   626   000FCB                     MEMCON          equ	4043	;# 
   627   000FCC                     TMR2            equ	4044	;# 
   628   000FCD                     T1CON           equ	4045	;# 
   629   000FCE                     TMR1            equ	4046	;# 
   630   000FCE                     TMR1L           equ	4046	;# 
   631   000FCF                     TMR1H           equ	4047	;# 
   632   000FD0                     RCON            equ	4048	;# 
   633   000FD1                     WDTCON          equ	4049	;# 
   634   000FD2                     HLVDCON         equ	4050	;# 
   635   000FD2                     LVDCON          equ	4050	;# 
   636   000FD3                     OSCCON          equ	4051	;# 
   637   000FD5                     T0CON           equ	4053	;# 
   638   000FD6                     TMR0            equ	4054	;# 
   639   000FD6                     TMR0L           equ	4054	;# 
   640   000FD7                     TMR0H           equ	4055	;# 
   641   000FD8                     STATUS          equ	4056	;# 
   642   000FD9                     FSR2            equ	4057	;# 
   643   000FD9                     FSR2L           equ	4057	;# 
   644   000FDA                     FSR2H           equ	4058	;# 
   645   000FDB                     PLUSW2          equ	4059	;# 
   646   000FDC                     PREINC2         equ	4060	;# 
   647   000FDD                     POSTDEC2        equ	4061	;# 
   648   000FDE                     POSTINC2        equ	4062	;# 
   649   000FDF                     INDF2           equ	4063	;# 
   650   000FE0                     BSR             equ	4064	;# 
   651   000FE1                     FSR1            equ	4065	;# 
   652   000FE1                     FSR1L           equ	4065	;# 
   653   000FE2                     FSR1H           equ	4066	;# 
   654   000FE3                     PLUSW1          equ	4067	;# 
   655   000FE4                     PREINC1         equ	4068	;# 
   656   000FE5                     POSTDEC1        equ	4069	;# 
   657   000FE6                     POSTINC1        equ	4070	;# 
   658   000FE7                     INDF1           equ	4071	;# 
   659   000FE8                     WREG            equ	4072	;# 
   660   000FE9                     FSR0            equ	4073	;# 
   661   000FE9                     FSR0L           equ	4073	;# 
   662   000FEA                     FSR0H           equ	4074	;# 
   663   000FEB                     PLUSW0          equ	4075	;# 
   664   000FEC                     PREINC0         equ	4076	;# 
   665   000FED                     POSTDEC0        equ	4077	;# 
   666   000FEE                     POSTINC0        equ	4078	;# 
   667   000FEF                     INDF0           equ	4079	;# 
   668   000FF0                     INTCON3         equ	4080	;# 
   669   000FF1                     INTCON2         equ	4081	;# 
   670   000FF2                     INTCON          equ	4082	;# 
   671   000FF3                     PROD            equ	4083	;# 
   672   000FF3                     PRODL           equ	4083	;# 
   673   000FF4                     PRODH           equ	4084	;# 
   674   000FF5                     TABLAT          equ	4085	;# 
   675   000FF6                     TBLPTR          equ	4086	;# 
   676   000FF6                     TBLPTRL         equ	4086	;# 
   677   000FF7                     TBLPTRH         equ	4087	;# 
   678   000FF8                     TBLPTRU         equ	4088	;# 
   679   000FF9                     PCLAT           equ	4089	;# 
   680   000FF9                     PC              equ	4089	;# 
   681   000FF9                     PCL             equ	4089	;# 
   682   000FFA                     PCLATH          equ	4090	;# 
   683   000FFB                     PCLATU          equ	4091	;# 
   684   000FFC                     STKPTR          equ	4092	;# 
   685   000FFD                     TOS             equ	4093	;# 
   686   000FFD                     TOSL            equ	4093	;# 
   687   000FFE                     TOSH            equ	4094	;# 
   688   000FFF                     TOSU            equ	4095	;# 
   689   000F80                     PORTA           equ	3968	;# 
   690   000F81                     PORTB           equ	3969	;# 
   691   000F82                     PORTC           equ	3970	;# 
   692   000F83                     PORTD           equ	3971	;# 
   693   000F84                     PORTE           equ	3972	;# 
   694   000F89                     LATA            equ	3977	;# 
   695   000F8A                     LATB            equ	3978	;# 
   696   000F8B                     LATC            equ	3979	;# 
   697   000F8C                     LATD            equ	3980	;# 
   698   000F8D                     LATE            equ	3981	;# 
   699   000F92                     TRISA           equ	3986	;# 
   700   000F92                     DDRA            equ	3986	;# 
   701   000F93                     TRISB           equ	3987	;# 
   702   000F93                     DDRB            equ	3987	;# 
   703   000F94                     TRISC           equ	3988	;# 
   704   000F94                     DDRC            equ	3988	;# 
   705   000F95                     TRISD           equ	3989	;# 
   706   000F95                     DDRD            equ	3989	;# 
   707   000F96                     TRISE           equ	3990	;# 
   708   000F96                     DDRE            equ	3990	;# 
   709   000F9B                     OSCTUNE         equ	3995	;# 
   710   000F9D                     PIE1            equ	3997	;# 
   711   000F9E                     PIR1            equ	3998	;# 
   712   000F9F                     IPR1            equ	3999	;# 
   713   000FA0                     PIE2            equ	4000	;# 
   714   000FA1                     PIR2            equ	4001	;# 
   715   000FA2                     IPR2            equ	4002	;# 
   716   000FA6                     EECON1          equ	4006	;# 
   717   000FA7                     EECON2          equ	4007	;# 
   718   000FA8                     EEDATA          equ	4008	;# 
   719   000FA9                     EEADR           equ	4009	;# 
   720   000FAB                     RCSTA           equ	4011	;# 
   721   000FAB                     RCSTA1          equ	4011	;# 
   722   000FAC                     TXSTA           equ	4012	;# 
   723   000FAC                     TXSTA1          equ	4012	;# 
   724   000FAD                     TXREG           equ	4013	;# 
   725   000FAD                     TXREG1          equ	4013	;# 
   726   000FAE                     RCREG           equ	4014	;# 
   727   000FAE                     RCREG1          equ	4014	;# 
   728   000FAF                     SPBRG           equ	4015	;# 
   729   000FAF                     SPBRG1          equ	4015	;# 
   730   000FB0                     SPBRGH          equ	4016	;# 
   731   000FB1                     T3CON           equ	4017	;# 
   732   000FB2                     TMR3            equ	4018	;# 
   733   000FB2                     TMR3L           equ	4018	;# 
   734   000FB3                     TMR3H           equ	4019	;# 
   735   000FB4                     CMCON           equ	4020	;# 
   736   000FB5                     CVRCON          equ	4021	;# 
   737   000FB6                     ECCP1AS         equ	4022	;# 
   738   000FB6                     ECCPAS          equ	4022	;# 
   739   000FB7                     PWM1CON         equ	4023	;# 
   740   000FB7                     ECCP1DEL        equ	4023	;# 
   741   000FB8                     BAUDCON         equ	4024	;# 
   742   000FB8                     BAUDCTL         equ	4024	;# 
   743   000FBA                     CCP2CON         equ	4026	;# 
   744   000FBB                     CCPR2           equ	4027	;# 
   745   000FBB                     CCPR2L          equ	4027	;# 
   746   000FBC                     CCPR2H          equ	4028	;# 
   747   000FBD                     CCP1CON         equ	4029	;# 
   748   000FBE                     CCPR1           equ	4030	;# 
   749   000FBE                     CCPR1L          equ	4030	;# 
   750   000FBF                     CCPR1H          equ	4031	;# 
   751   000FC0                     ADCON2          equ	4032	;# 
   752   000FC1                     ADCON1          equ	4033	;# 
   753   000FC2                     ADCON0          equ	4034	;# 
   754   000FC3                     ADRES           equ	4035	;# 
   755   000FC3                     ADRESL          equ	4035	;# 
   756   000FC4                     ADRESH          equ	4036	;# 
   757   000FC5                     SSPCON2         equ	4037	;# 
   758   000FC6                     SSPCON1         equ	4038	;# 
   759   000FC7                     SSPSTAT         equ	4039	;# 
   760   000FC8                     SSPADD          equ	4040	;# 
   761   000FC9                     SSPBUF          equ	4041	;# 
   762   000FCA                     T2CON           equ	4042	;# 
   763   000FCB                     PR2             equ	4043	;# 
   764   000FCB                     MEMCON          equ	4043	;# 
   765   000FCC                     TMR2            equ	4044	;# 
   766   000FCD                     T1CON           equ	4045	;# 
   767   000FCE                     TMR1            equ	4046	;# 
   768   000FCE                     TMR1L           equ	4046	;# 
   769   000FCF                     TMR1H           equ	4047	;# 
   770   000FD0                     RCON            equ	4048	;# 
   771   000FD1                     WDTCON          equ	4049	;# 
   772   000FD2                     HLVDCON         equ	4050	;# 
   773   000FD2                     LVDCON          equ	4050	;# 
   774   000FD3                     OSCCON          equ	4051	;# 
   775   000FD5                     T0CON           equ	4053	;# 
   776   000FD6                     TMR0            equ	4054	;# 
   777   000FD6                     TMR0L           equ	4054	;# 
   778   000FD7                     TMR0H           equ	4055	;# 
   779   000FD8                     STATUS          equ	4056	;# 
   780   000FD9                     FSR2            equ	4057	;# 
   781   000FD9                     FSR2L           equ	4057	;# 
   782   000FDA                     FSR2H           equ	4058	;# 
   783   000FDB                     PLUSW2          equ	4059	;# 
   784   000FDC                     PREINC2         equ	4060	;# 
   785   000FDD                     POSTDEC2        equ	4061	;# 
   786   000FDE                     POSTINC2        equ	4062	;# 
   787   000FDF                     INDF2           equ	4063	;# 
   788   000FE0                     BSR             equ	4064	;# 
   789   000FE1                     FSR1            equ	4065	;# 
   790   000FE1                     FSR1L           equ	4065	;# 
   791   000FE2                     FSR1H           equ	4066	;# 
   792   000FE3                     PLUSW1          equ	4067	;# 
   793   000FE4                     PREINC1         equ	4068	;# 
   794   000FE5                     POSTDEC1        equ	4069	;# 
   795   000FE6                     POSTINC1        equ	4070	;# 
   796   000FE7                     INDF1           equ	4071	;# 
   797   000FE8                     WREG            equ	4072	;# 
   798   000FE9                     FSR0            equ	4073	;# 
   799   000FE9                     FSR0L           equ	4073	;# 
   800   000FEA                     FSR0H           equ	4074	;# 
   801   000FEB                     PLUSW0          equ	4075	;# 
   802   000FEC                     PREINC0         equ	4076	;# 
   803   000FED                     POSTDEC0        equ	4077	;# 
   804   000FEE                     POSTINC0        equ	4078	;# 
   805   000FEF                     INDF0           equ	4079	;# 
   806   000FF0                     INTCON3         equ	4080	;# 
   807   000FF1                     INTCON2         equ	4081	;# 
   808   000FF2                     INTCON          equ	4082	;# 
   809   000FF3                     PROD            equ	4083	;# 
   810   000FF3                     PRODL           equ	4083	;# 
   811   000FF4                     PRODH           equ	4084	;# 
   812   000FF5                     TABLAT          equ	4085	;# 
   813   000FF6                     TBLPTR          equ	4086	;# 
   814   000FF6                     TBLPTRL         equ	4086	;# 
   815   000FF7                     TBLPTRH         equ	4087	;# 
   816   000FF8                     TBLPTRU         equ	4088	;# 
   817   000FF9                     PCLAT           equ	4089	;# 
   818   000FF9                     PC              equ	4089	;# 
   819   000FF9                     PCL             equ	4089	;# 
   820   000FFA                     PCLATH          equ	4090	;# 
   821   000FFB                     PCLATU          equ	4091	;# 
   822   000FFC                     STKPTR          equ	4092	;# 
   823   000FFD                     TOS             equ	4093	;# 
   824   000FFD                     TOSL            equ	4093	;# 
   825   000FFE                     TOSH            equ	4094	;# 
   826   000FFF                     TOSU            equ	4095	;# 
   827   000F80                     PORTA           equ	3968	;# 
   828   000F81                     PORTB           equ	3969	;# 
   829   000F82                     PORTC           equ	3970	;# 
   830   000F83                     PORTD           equ	3971	;# 
   831   000F84                     PORTE           equ	3972	;# 
   832   000F89                     LATA            equ	3977	;# 
   833   000F8A                     LATB            equ	3978	;# 
   834   000F8B                     LATC            equ	3979	;# 
   835   000F8C                     LATD            equ	3980	;# 
   836   000F8D                     LATE            equ	3981	;# 
   837   000F92                     TRISA           equ	3986	;# 
   838   000F92                     DDRA            equ	3986	;# 
   839   000F93                     TRISB           equ	3987	;# 
   840   000F93                     DDRB            equ	3987	;# 
   841   000F94                     TRISC           equ	3988	;# 
   842   000F94                     DDRC            equ	3988	;# 
   843   000F95                     TRISD           equ	3989	;# 
   844   000F95                     DDRD            equ	3989	;# 
   845   000F96                     TRISE           equ	3990	;# 
   846   000F96                     DDRE            equ	3990	;# 
   847   000F9B                     OSCTUNE         equ	3995	;# 
   848   000F9D                     PIE1            equ	3997	;# 
   849   000F9E                     PIR1            equ	3998	;# 
   850   000F9F                     IPR1            equ	3999	;# 
   851   000FA0                     PIE2            equ	4000	;# 
   852   000FA1                     PIR2            equ	4001	;# 
   853   000FA2                     IPR2            equ	4002	;# 
   854   000FA6                     EECON1          equ	4006	;# 
   855   000FA7                     EECON2          equ	4007	;# 
   856   000FA8                     EEDATA          equ	4008	;# 
   857   000FA9                     EEADR           equ	4009	;# 
   858   000FAB                     RCSTA           equ	4011	;# 
   859   000FAB                     RCSTA1          equ	4011	;# 
   860   000FAC                     TXSTA           equ	4012	;# 
   861   000FAC                     TXSTA1          equ	4012	;# 
   862   000FAD                     TXREG           equ	4013	;# 
   863   000FAD                     TXREG1          equ	4013	;# 
   864   000FAE                     RCREG           equ	4014	;# 
   865   000FAE                     RCREG1          equ	4014	;# 
   866   000FAF                     SPBRG           equ	4015	;# 
   867   000FAF                     SPBRG1          equ	4015	;# 
   868   000FB0                     SPBRGH          equ	4016	;# 
   869   000FB1                     T3CON           equ	4017	;# 
   870   000FB2                     TMR3            equ	4018	;# 
   871   000FB2                     TMR3L           equ	4018	;# 
   872   000FB3                     TMR3H           equ	4019	;# 
   873   000FB4                     CMCON           equ	4020	;# 
   874   000FB5                     CVRCON          equ	4021	;# 
   875   000FB6                     ECCP1AS         equ	4022	;# 
   876   000FB6                     ECCPAS          equ	4022	;# 
   877   000FB7                     PWM1CON         equ	4023	;# 
   878   000FB7                     ECCP1DEL        equ	4023	;# 
   879   000FB8                     BAUDCON         equ	4024	;# 
   880   000FB8                     BAUDCTL         equ	4024	;# 
   881   000FBA                     CCP2CON         equ	4026	;# 
   882   000FBB                     CCPR2           equ	4027	;# 
   883   000FBB                     CCPR2L          equ	4027	;# 
   884   000FBC                     CCPR2H          equ	4028	;# 
   885   000FBD                     CCP1CON         equ	4029	;# 
   886   000FBE                     CCPR1           equ	4030	;# 
   887   000FBE                     CCPR1L          equ	4030	;# 
   888   000FBF                     CCPR1H          equ	4031	;# 
   889   000FC0                     ADCON2          equ	4032	;# 
   890   000FC1                     ADCON1          equ	4033	;# 
   891   000FC2                     ADCON0          equ	4034	;# 
   892   000FC3                     ADRES           equ	4035	;# 
   893   000FC3                     ADRESL          equ	4035	;# 
   894   000FC4                     ADRESH          equ	4036	;# 
   895   000FC5                     SSPCON2         equ	4037	;# 
   896   000FC6                     SSPCON1         equ	4038	;# 
   897   000FC7                     SSPSTAT         equ	4039	;# 
   898   000FC8                     SSPADD          equ	4040	;# 
   899   000FC9                     SSPBUF          equ	4041	;# 
   900   000FCA                     T2CON           equ	4042	;# 
   901   000FCB                     PR2             equ	4043	;# 
   902   000FCB                     MEMCON          equ	4043	;# 
   903   000FCC                     TMR2            equ	4044	;# 
   904   000FCD                     T1CON           equ	4045	;# 
   905   000FCE                     TMR1            equ	4046	;# 
   906   000FCE                     TMR1L           equ	4046	;# 
   907   000FCF                     TMR1H           equ	4047	;# 
   908   000FD0                     RCON            equ	4048	;# 
   909   000FD1                     WDTCON          equ	4049	;# 
   910   000FD2                     HLVDCON         equ	4050	;# 
   911   000FD2                     LVDCON          equ	4050	;# 
   912   000FD3                     OSCCON          equ	4051	;# 
   913   000FD5                     T0CON           equ	4053	;# 
   914   000FD6                     TMR0            equ	4054	;# 
   915   000FD6                     TMR0L           equ	4054	;# 
   916   000FD7                     TMR0H           equ	4055	;# 
   917   000FD8                     STATUS          equ	4056	;# 
   918   000FD9                     FSR2            equ	4057	;# 
   919   000FD9                     FSR2L           equ	4057	;# 
   920   000FDA                     FSR2H           equ	4058	;# 
   921   000FDB                     PLUSW2          equ	4059	;# 
   922   000FDC                     PREINC2         equ	4060	;# 
   923   000FDD                     POSTDEC2        equ	4061	;# 
   924   000FDE                     POSTINC2        equ	4062	;# 
   925   000FDF                     INDF2           equ	4063	;# 
   926   000FE0                     BSR             equ	4064	;# 
   927   000FE1                     FSR1            equ	4065	;# 
   928   000FE1                     FSR1L           equ	4065	;# 
   929   000FE2                     FSR1H           equ	4066	;# 
   930   000FE3                     PLUSW1          equ	4067	;# 
   931   000FE4                     PREINC1         equ	4068	;# 
   932   000FE5                     POSTDEC1        equ	4069	;# 
   933   000FE6                     POSTINC1        equ	4070	;# 
   934   000FE7                     INDF1           equ	4071	;# 
   935   000FE8                     WREG            equ	4072	;# 
   936   000FE9                     FSR0            equ	4073	;# 
   937   000FE9                     FSR0L           equ	4073	;# 
   938   000FEA                     FSR0H           equ	4074	;# 
   939   000FEB                     PLUSW0          equ	4075	;# 
   940   000FEC                     PREINC0         equ	4076	;# 
   941   000FED                     POSTDEC0        equ	4077	;# 
   942   000FEE                     POSTINC0        equ	4078	;# 
   943   000FEF                     INDF0           equ	4079	;# 
   944   000FF0                     INTCON3         equ	4080	;# 
   945   000FF1                     INTCON2         equ	4081	;# 
   946   000FF2                     INTCON          equ	4082	;# 
   947   000FF3                     PROD            equ	4083	;# 
   948   000FF3                     PRODL           equ	4083	;# 
   949   000FF4                     PRODH           equ	4084	;# 
   950   000FF5                     TABLAT          equ	4085	;# 
   951   000FF6                     TBLPTR          equ	4086	;# 
   952   000FF6                     TBLPTRL         equ	4086	;# 
   953   000FF7                     TBLPTRH         equ	4087	;# 
   954   000FF8                     TBLPTRU         equ	4088	;# 
   955   000FF9                     PCLAT           equ	4089	;# 
   956   000FF9                     PC              equ	4089	;# 
   957   000FF9                     PCL             equ	4089	;# 
   958   000FFA                     PCLATH          equ	4090	;# 
   959   000FFB                     PCLATU          equ	4091	;# 
   960   000FFC                     STKPTR          equ	4092	;# 
   961   000FFD                     TOS             equ	4093	;# 
   962   000FFD                     TOSL            equ	4093	;# 
   963   000FFE                     TOSH            equ	4094	;# 
   964   000FFF                     TOSU            equ	4095	;# 
   965   000F80                     PORTA           equ	3968	;# 
   966   000F81                     PORTB           equ	3969	;# 
   967   000F82                     PORTC           equ	3970	;# 
   968   000F83                     PORTD           equ	3971	;# 
   969   000F84                     PORTE           equ	3972	;# 
   970   000F89                     LATA            equ	3977	;# 
   971   000F8A                     LATB            equ	3978	;# 
   972   000F8B                     LATC            equ	3979	;# 
   973   000F8C                     LATD            equ	3980	;# 
   974   000F8D                     LATE            equ	3981	;# 
   975   000F92                     TRISA           equ	3986	;# 
   976   000F92                     DDRA            equ	3986	;# 
   977   000F93                     TRISB           equ	3987	;# 
   978   000F93                     DDRB            equ	3987	;# 
   979   000F94                     TRISC           equ	3988	;# 
   980   000F94                     DDRC            equ	3988	;# 
   981   000F95                     TRISD           equ	3989	;# 
   982   000F95                     DDRD            equ	3989	;# 
   983   000F96                     TRISE           equ	3990	;# 
   984   000F96                     DDRE            equ	3990	;# 
   985   000F9B                     OSCTUNE         equ	3995	;# 
   986   000F9D                     PIE1            equ	3997	;# 
   987   000F9E                     PIR1            equ	3998	;# 
   988   000F9F                     IPR1            equ	3999	;# 
   989   000FA0                     PIE2            equ	4000	;# 
   990   000FA1                     PIR2            equ	4001	;# 
   991   000FA2                     IPR2            equ	4002	;# 
   992   000FA6                     EECON1          equ	4006	;# 
   993   000FA7                     EECON2          equ	4007	;# 
   994   000FA8                     EEDATA          equ	4008	;# 
   995   000FA9                     EEADR           equ	4009	;# 
   996   000FAB                     RCSTA           equ	4011	;# 
   997   000FAB                     RCSTA1          equ	4011	;# 
   998   000FAC                     TXSTA           equ	4012	;# 
   999   000FAC                     TXSTA1          equ	4012	;# 
  1000   000FAD                     TXREG           equ	4013	;# 
  1001   000FAD                     TXREG1          equ	4013	;# 
  1002   000FAE                     RCREG           equ	4014	;# 
  1003   000FAE                     RCREG1          equ	4014	;# 
  1004   000FAF                     SPBRG           equ	4015	;# 
  1005   000FAF                     SPBRG1          equ	4015	;# 
  1006   000FB0                     SPBRGH          equ	4016	;# 
  1007   000FB1                     T3CON           equ	4017	;# 
  1008   000FB2                     TMR3            equ	4018	;# 
  1009   000FB2                     TMR3L           equ	4018	;# 
  1010   000FB3                     TMR3H           equ	4019	;# 
  1011   000FB4                     CMCON           equ	4020	;# 
  1012   000FB5                     CVRCON          equ	4021	;# 
  1013   000FB6                     ECCP1AS         equ	4022	;# 
  1014   000FB6                     ECCPAS          equ	4022	;# 
  1015   000FB7                     PWM1CON         equ	4023	;# 
  1016   000FB7                     ECCP1DEL        equ	4023	;# 
  1017   000FB8                     BAUDCON         equ	4024	;# 
  1018   000FB8                     BAUDCTL         equ	4024	;# 
  1019   000FBA                     CCP2CON         equ	4026	;# 
  1020   000FBB                     CCPR2           equ	4027	;# 
  1021   000FBB                     CCPR2L          equ	4027	;# 
  1022   000FBC                     CCPR2H          equ	4028	;# 
  1023   000FBD                     CCP1CON         equ	4029	;# 
  1024   000FBE                     CCPR1           equ	4030	;# 
  1025   000FBE                     CCPR1L          equ	4030	;# 
  1026   000FBF                     CCPR1H          equ	4031	;# 
  1027   000FC0                     ADCON2          equ	4032	;# 
  1028   000FC1                     ADCON1          equ	4033	;# 
  1029   000FC2                     ADCON0          equ	4034	;# 
  1030   000FC3                     ADRES           equ	4035	;# 
  1031   000FC3                     ADRESL          equ	4035	;# 
  1032   000FC4                     ADRESH          equ	4036	;# 
  1033   000FC5                     SSPCON2         equ	4037	;# 
  1034   000FC6                     SSPCON1         equ	4038	;# 
  1035   000FC7                     SSPSTAT         equ	4039	;# 
  1036   000FC8                     SSPADD          equ	4040	;# 
  1037   000FC9                     SSPBUF          equ	4041	;# 
  1038   000FCA                     T2CON           equ	4042	;# 
  1039   000FCB                     PR2             equ	4043	;# 
  1040   000FCB                     MEMCON          equ	4043	;# 
  1041   000FCC                     TMR2            equ	4044	;# 
  1042   000FCD                     T1CON           equ	4045	;# 
  1043   000FCE                     TMR1            equ	4046	;# 
  1044   000FCE                     TMR1L           equ	4046	;# 
  1045   000FCF                     TMR1H           equ	4047	;# 
  1046   000FD0                     RCON            equ	4048	;# 
  1047   000FD1                     WDTCON          equ	4049	;# 
  1048   000FD2                     HLVDCON         equ	4050	;# 
  1049   000FD2                     LVDCON          equ	4050	;# 
  1050   000FD3                     OSCCON          equ	4051	;# 
  1051   000FD5                     T0CON           equ	4053	;# 
  1052   000FD6                     TMR0            equ	4054	;# 
  1053   000FD6                     TMR0L           equ	4054	;# 
  1054   000FD7                     TMR0H           equ	4055	;# 
  1055   000FD8                     STATUS          equ	4056	;# 
  1056   000FD9                     FSR2            equ	4057	;# 
  1057   000FD9                     FSR2L           equ	4057	;# 
  1058   000FDA                     FSR2H           equ	4058	;# 
  1059   000FDB                     PLUSW2          equ	4059	;# 
  1060   000FDC                     PREINC2         equ	4060	;# 
  1061   000FDD                     POSTDEC2        equ	4061	;# 
  1062   000FDE                     POSTINC2        equ	4062	;# 
  1063   000FDF                     INDF2           equ	4063	;# 
  1064   000FE0                     BSR             equ	4064	;# 
  1065   000FE1                     FSR1            equ	4065	;# 
  1066   000FE1                     FSR1L           equ	4065	;# 
  1067   000FE2                     FSR1H           equ	4066	;# 
  1068   000FE3                     PLUSW1          equ	4067	;# 
  1069   000FE4                     PREINC1         equ	4068	;# 
  1070   000FE5                     POSTDEC1        equ	4069	;# 
  1071   000FE6                     POSTINC1        equ	4070	;# 
  1072   000FE7                     INDF1           equ	4071	;# 
  1073   000FE8                     WREG            equ	4072	;# 
  1074   000FE9                     FSR0            equ	4073	;# 
  1075   000FE9                     FSR0L           equ	4073	;# 
  1076   000FEA                     FSR0H           equ	4074	;# 
  1077   000FEB                     PLUSW0          equ	4075	;# 
  1078   000FEC                     PREINC0         equ	4076	;# 
  1079   000FED                     POSTDEC0        equ	4077	;# 
  1080   000FEE                     POSTINC0        equ	4078	;# 
  1081   000FEF                     INDF0           equ	4079	;# 
  1082   000FF0                     INTCON3         equ	4080	;# 
  1083   000FF1                     INTCON2         equ	4081	;# 
  1084   000FF2                     INTCON          equ	4082	;# 
  1085   000FF3                     PROD            equ	4083	;# 
  1086   000FF3                     PRODL           equ	4083	;# 
  1087   000FF4                     PRODH           equ	4084	;# 
  1088   000FF5                     TABLAT          equ	4085	;# 
  1089   000FF6                     TBLPTR          equ	4086	;# 
  1090   000FF6                     TBLPTRL         equ	4086	;# 
  1091   000FF7                     TBLPTRH         equ	4087	;# 
  1092   000FF8                     TBLPTRU         equ	4088	;# 
  1093   000FF9                     PCLAT           equ	4089	;# 
  1094   000FF9                     PC              equ	4089	;# 
  1095   000FF9                     PCL             equ	4089	;# 
  1096   000FFA                     PCLATH          equ	4090	;# 
  1097   000FFB                     PCLATU          equ	4091	;# 
  1098   000FFC                     STKPTR          equ	4092	;# 
  1099   000FFD                     TOS             equ	4093	;# 
  1100   000FFD                     TOSL            equ	4093	;# 
  1101   000FFE                     TOSH            equ	4094	;# 
  1102   000FFF                     TOSU            equ	4095	;# 
  1103   000F80                     PORTA           equ	3968	;# 
  1104   000F81                     PORTB           equ	3969	;# 
  1105   000F82                     PORTC           equ	3970	;# 
  1106   000F83                     PORTD           equ	3971	;# 
  1107   000F84                     PORTE           equ	3972	;# 
  1108   000F89                     LATA            equ	3977	;# 
  1109   000F8A                     LATB            equ	3978	;# 
  1110   000F8B                     LATC            equ	3979	;# 
  1111   000F8C                     LATD            equ	3980	;# 
  1112   000F8D                     LATE            equ	3981	;# 
  1113   000F92                     TRISA           equ	3986	;# 
  1114   000F92                     DDRA            equ	3986	;# 
  1115   000F93                     TRISB           equ	3987	;# 
  1116   000F93                     DDRB            equ	3987	;# 
  1117   000F94                     TRISC           equ	3988	;# 
  1118   000F94                     DDRC            equ	3988	;# 
  1119   000F95                     TRISD           equ	3989	;# 
  1120   000F95                     DDRD            equ	3989	;# 
  1121   000F96                     TRISE           equ	3990	;# 
  1122   000F96                     DDRE            equ	3990	;# 
  1123   000F9B                     OSCTUNE         equ	3995	;# 
  1124   000F9D                     PIE1            equ	3997	;# 
  1125   000F9E                     PIR1            equ	3998	;# 
  1126   000F9F                     IPR1            equ	3999	;# 
  1127   000FA0                     PIE2            equ	4000	;# 
  1128   000FA1                     PIR2            equ	4001	;# 
  1129   000FA2                     IPR2            equ	4002	;# 
  1130   000FA6                     EECON1          equ	4006	;# 
  1131   000FA7                     EECON2          equ	4007	;# 
  1132   000FA8                     EEDATA          equ	4008	;# 
  1133   000FA9                     EEADR           equ	4009	;# 
  1134   000FAB                     RCSTA           equ	4011	;# 
  1135   000FAB                     RCSTA1          equ	4011	;# 
  1136   000FAC                     TXSTA           equ	4012	;# 
  1137   000FAC                     TXSTA1          equ	4012	;# 
  1138   000FAD                     TXREG           equ	4013	;# 
  1139   000FAD                     TXREG1          equ	4013	;# 
  1140   000FAE                     RCREG           equ	4014	;# 
  1141   000FAE                     RCREG1          equ	4014	;# 
  1142   000FAF                     SPBRG           equ	4015	;# 
  1143   000FAF                     SPBRG1          equ	4015	;# 
  1144   000FB0                     SPBRGH          equ	4016	;# 
  1145   000FB1                     T3CON           equ	4017	;# 
  1146   000FB2                     TMR3            equ	4018	;# 
  1147   000FB2                     TMR3L           equ	4018	;# 
  1148   000FB3                     TMR3H           equ	4019	;# 
  1149   000FB4                     CMCON           equ	4020	;# 
  1150   000FB5                     CVRCON          equ	4021	;# 
  1151   000FB6                     ECCP1AS         equ	4022	;# 
  1152   000FB6                     ECCPAS          equ	4022	;# 
  1153   000FB7                     PWM1CON         equ	4023	;# 
  1154   000FB7                     ECCP1DEL        equ	4023	;# 
  1155   000FB8                     BAUDCON         equ	4024	;# 
  1156   000FB8                     BAUDCTL         equ	4024	;# 
  1157   000FBA                     CCP2CON         equ	4026	;# 
  1158   000FBB                     CCPR2           equ	4027	;# 
  1159   000FBB                     CCPR2L          equ	4027	;# 
  1160   000FBC                     CCPR2H          equ	4028	;# 
  1161   000FBD                     CCP1CON         equ	4029	;# 
  1162   000FBE                     CCPR1           equ	4030	;# 
  1163   000FBE                     CCPR1L          equ	4030	;# 
  1164   000FBF                     CCPR1H          equ	4031	;# 
  1165   000FC0                     ADCON2          equ	4032	;# 
  1166   000FC1                     ADCON1          equ	4033	;# 
  1167   000FC2                     ADCON0          equ	4034	;# 
  1168   000FC3                     ADRES           equ	4035	;# 
  1169   000FC3                     ADRESL          equ	4035	;# 
  1170   000FC4                     ADRESH          equ	4036	;# 
  1171   000FC5                     SSPCON2         equ	4037	;# 
  1172   000FC6                     SSPCON1         equ	4038	;# 
  1173   000FC7                     SSPSTAT         equ	4039	;# 
  1174   000FC8                     SSPADD          equ	4040	;# 
  1175   000FC9                     SSPBUF          equ	4041	;# 
  1176   000FCA                     T2CON           equ	4042	;# 
  1177   000FCB                     PR2             equ	4043	;# 
  1178   000FCB                     MEMCON          equ	4043	;# 
  1179   000FCC                     TMR2            equ	4044	;# 
  1180   000FCD                     T1CON           equ	4045	;# 
  1181   000FCE                     TMR1            equ	4046	;# 
  1182   000FCE                     TMR1L           equ	4046	;# 
  1183   000FCF                     TMR1H           equ	4047	;# 
  1184   000FD0                     RCON            equ	4048	;# 
  1185   000FD1                     WDTCON          equ	4049	;# 
  1186   000FD2                     HLVDCON         equ	4050	;# 
  1187   000FD2                     LVDCON          equ	4050	;# 
  1188   000FD3                     OSCCON          equ	4051	;# 
  1189   000FD5                     T0CON           equ	4053	;# 
  1190   000FD6                     TMR0            equ	4054	;# 
  1191   000FD6                     TMR0L           equ	4054	;# 
  1192   000FD7                     TMR0H           equ	4055	;# 
  1193   000FD8                     STATUS          equ	4056	;# 
  1194   000FD9                     FSR2            equ	4057	;# 
  1195   000FD9                     FSR2L           equ	4057	;# 
  1196   000FDA                     FSR2H           equ	4058	;# 
  1197   000FDB                     PLUSW2          equ	4059	;# 
  1198   000FDC                     PREINC2         equ	4060	;# 
  1199   000FDD                     POSTDEC2        equ	4061	;# 
  1200   000FDE                     POSTINC2        equ	4062	;# 
  1201   000FDF                     INDF2           equ	4063	;# 
  1202   000FE0                     BSR             equ	4064	;# 
  1203   000FE1                     FSR1            equ	4065	;# 
  1204   000FE1                     FSR1L           equ	4065	;# 
  1205   000FE2                     FSR1H           equ	4066	;# 
  1206   000FE3                     PLUSW1          equ	4067	;# 
  1207   000FE4                     PREINC1         equ	4068	;# 
  1208   000FE5                     POSTDEC1        equ	4069	;# 
  1209   000FE6                     POSTINC1        equ	4070	;# 
  1210   000FE7                     INDF1           equ	4071	;# 
  1211   000FE8                     WREG            equ	4072	;# 
  1212   000FE9                     FSR0            equ	4073	;# 
  1213   000FE9                     FSR0L           equ	4073	;# 
  1214   000FEA                     FSR0H           equ	4074	;# 
  1215   000FEB                     PLUSW0          equ	4075	;# 
  1216   000FEC                     PREINC0         equ	4076	;# 
  1217   000FED                     POSTDEC0        equ	4077	;# 
  1218   000FEE                     POSTINC0        equ	4078	;# 
  1219   000FEF                     INDF0           equ	4079	;# 
  1220   000FF0                     INTCON3         equ	4080	;# 
  1221   000FF1                     INTCON2         equ	4081	;# 
  1222   000FF2                     INTCON          equ	4082	;# 
  1223   000FF3                     PROD            equ	4083	;# 
  1224   000FF3                     PRODL           equ	4083	;# 
  1225   000FF4                     PRODH           equ	4084	;# 
  1226   000FF5                     TABLAT          equ	4085	;# 
  1227   000FF6                     TBLPTR          equ	4086	;# 
  1228   000FF6                     TBLPTRL         equ	4086	;# 
  1229   000FF7                     TBLPTRH         equ	4087	;# 
  1230   000FF8                     TBLPTRU         equ	4088	;# 
  1231   000FF9                     PCLAT           equ	4089	;# 
  1232   000FF9                     PC              equ	4089	;# 
  1233   000FF9                     PCL             equ	4089	;# 
  1234   000FFA                     PCLATH          equ	4090	;# 
  1235   000FFB                     PCLATU          equ	4091	;# 
  1236   000FFC                     STKPTR          equ	4092	;# 
  1237   000FFD                     TOS             equ	4093	;# 
  1238   000FFD                     TOSL            equ	4093	;# 
  1239   000FFE                     TOSH            equ	4094	;# 
  1240   000FFF                     TOSU            equ	4095	;# 
  1241                           
  1242                           	psect	idataBANK0
  1243   003126                     __pidataBANK0:
  1244                           	callstack 0
  1245                           
  1246                           ;initializer for SystemInitialize@F2690
  1247   003126  0010               	dw	16
  1248   003128  0010               	dw	16
  1249   00312A  03E8               	dw	1000
  1250   00312C  0014               	dw	20
  1251                           
  1252                           ;initializer for SystemInitialize@F2688
  1253   00312E  01                 	db	1
  1254   00312F  00                 	db	0
  1255   003130  02                 	db	2
  1256   003131  02                 	db	2
  1257   003132  00                 	db	0
  1258                           
  1259                           ;initializer for _duty_cycle_us
  1260   003133  01F4               	dw	500
  1261                           
  1262                           	psect	idataBANK1
  1263   003180                     __pidataBANK1:
  1264                           	callstack 0
  1265                           
  1266                           ;initializer for _Timer2Postscaler
  1267   003180  0010               	dw	16
  1268                           
  1269                           ;initializer for _Timer2Prescaler
  1270   003182  0010               	dw	16
  1271   007CF5                     _RCIF           set	31989
  1272   007E9C                     _IRCF0          set	32412
  1273   007E9D                     _IRCF1          set	32413
  1274   007E9E                     _IRCF2          set	32414
  1275   000F93                     _TRISBbits      set	3987
  1276   000F94                     _TRISCbits      set	3988
  1277   000F92                     _TRISAbits      set	3986
  1278   000F89                     _LATA           set	3977
  1279   000FC4                     _ADRESH         set	4036
  1280   000FAE                     _RCREG          set	4014
  1281   000FAD                     _TXREG          set	4013
  1282   000FAB                     _RCSTAbits      set	4011
  1283   000FAF                     _SPBRG          set	4015
  1284   000FB8                     _BAUDCONbits    set	4024
  1285   000FAC                     _TXSTAbits      set	4012
  1286   000FCA                     _T2CONbits      set	4042
  1287   000FC1                     _ADCON1         set	4033
  1288   000FD0                     _RCONbits       set	4048
  1289   000FBE                     _CCPR1L         set	4030
  1290   000FCB                     _PR2            set	4043
  1291   000FBD                     _CCP1CONbits    set	4029
  1292   000F9F                     _IPR1bits       set	3999
  1293   000F9E                     _PIR1bits       set	3998
  1294   000F9D                     _PIE1bits       set	3997
  1295   000FC2                     _ADCON0bits     set	4034
  1296   000FC0                     _ADCON2bits     set	4032
  1297   000FC1                     _ADCON1bits     set	4033
  1298   000FF2                     _INTCONbits     set	4082
  1299                           
  1300                           	psect	smallconst
  1301   000600                     __psmallconst:
  1302                           	callstack 0
  1303   000600  00                 	db	0
  1304   000601  25                 	db	37
  1305   000602  64                 	db	100	;'d'
  1306   000603  00                 	db	0
  1307   000604  00                 	db	0	; dummy byte at the end
  1308   000001                     __activetblptr  equ	1
  1309                           
  1310                           ; #config settings
  1311                           
  1312                           	psect	cinit
  1313   002DD2                     __pcinit:
  1314                           	callstack 0
  1315   002DD2                     start_initialization:
  1316                           	callstack 0
  1317   002DD2                     __initialization:
  1318                           	callstack 0
  1319                           
  1320                           ; Initialize objects allocated to BANK1 (4 bytes)
  1321                           ; load TBLPTR registers with __pidataBANK1
  1322   002DD2  0E80               	movlw	low __pidataBANK1
  1323   002DD4  6EF6               	movwf	tblptrl,c
  1324   002DD6  0E31               	movlw	high __pidataBANK1
  1325   002DD8  6EF7               	movwf	tblptrh,c
  1326   002DDA  0E00               	movlw	low (__pidataBANK1 shr (0+16))
  1327   002DDC  6EF8               	movwf	tblptru,c
  1328   002DDE  EE01  F0D1         	lfsr	0,__pdataBANK1
  1329   002DE2  EE10 F004          	lfsr	1,4
  1330   002DE6                     copy_data0:
  1331   002DE6  0009               	tblrd		*+
  1332   002DE8  CFF5 FFEE          	movff	tablat,postinc0
  1333   002DEC  50E5               	movf	postdec1,w,c
  1334   002DEE  50E1               	movf	fsr1l,w,c
  1335   002DF0  E1FA               	bnz	copy_data0
  1336                           
  1337                           ; Initialize objects allocated to BANK0 (15 bytes)
  1338                           ; load TBLPTR registers with __pidataBANK0
  1339   002DF2  0E26               	movlw	low __pidataBANK0
  1340   002DF4  6EF6               	movwf	tblptrl,c
  1341   002DF6  0E31               	movlw	high __pidataBANK0
  1342   002DF8  6EF7               	movwf	tblptrh,c
  1343   002DFA  0E00               	movlw	low (__pidataBANK0 shr (0+16))
  1344   002DFC  6EF8               	movwf	tblptru,c
  1345   002DFE  EE00  F0CC         	lfsr	0,__pdataBANK0
  1346   002E02  EE10 F00F          	lfsr	1,15
  1347   002E06                     copy_data1:
  1348   002E06  0009               	tblrd		*+
  1349   002E08  CFF5 FFEE          	movff	tablat,postinc0
  1350   002E0C  50E5               	movf	postdec1,w,c
  1351   002E0E  50E1               	movf	fsr1l,w,c
  1352   002E10  E1FA               	bnz	copy_data1
  1353                           
  1354                           ; Clear objects allocated to BIGRAM (360 bytes)
  1355   002E12  EE01  F0D5         	lfsr	0,__pbssBIGRAM
  1356   002E16  EE11 F068          	lfsr	1,360
  1357   002E1A                     clear_0:
  1358   002E1A  6AEE               	clrf	postinc0,c
  1359   002E1C  50E5               	movf	postdec1,w,c
  1360   002E1E  50E1               	movf	fsr1l,w,c
  1361   002E20  E1FC               	bnz	clear_0
  1362   002E22  50E2               	movf	fsr1h,w,c
  1363   002E24  E1FA               	bnz	clear_0
  1364                           
  1365                           ; Clear objects allocated to BANK1 (128 bytes)
  1366   002E26  EE01  F000         	lfsr	0,__pbssBANK1
  1367   002E2A  0E80               	movlw	128
  1368   002E2C                     clear_1:
  1369   002E2C  6AEE               	clrf	postinc0,c
  1370   002E2E  06E8               	decf	wreg,f,c
  1371   002E30  E1FD               	bnz	clear_1
  1372                           
  1373                           ; Clear objects allocated to BANK0 (6 bytes)
  1374   002E32  0100               	movlb	0
  1375   002E34  6BE0               	clrf	(__pbssBANK0+5)& (0+255),b
  1376   002E36  6BDF               	clrf	(__pbssBANK0+4)& (0+255),b
  1377   002E38  6BDE               	clrf	(__pbssBANK0+3)& (0+255),b
  1378   002E3A  6BDD               	clrf	(__pbssBANK0+2)& (0+255),b
  1379   002E3C  6BDC               	clrf	(__pbssBANK0+1)& (0+255),b
  1380   002E3E  6BDB               	clrf	__pbssBANK0& (0+255),b
  1381                           
  1382                           ; Clear objects allocated to COMRAM (10 bytes)
  1383   002E40  EE00  F06F         	lfsr	0,__pbssCOMRAM
  1384   002E44  0E0A               	movlw	10
  1385   002E46                     clear_2:
  1386   002E46  6AEE               	clrf	postinc0,c
  1387   002E48  06E8               	decf	wreg,f,c
  1388   002E4A  E1FD               	bnz	clear_2
  1389   002E4C                     end_of_initialization:
  1390                           	callstack 0
  1391   002E4C                     __end_of__initialization:
  1392                           	callstack 0
  1393   002E4C  9079               	bcf	int$flags,0,c	;clear compiler interrupt flag (level 1)
  1394   002E4E  9279               	bcf	int$flags,1,c	;clear compiler interrupt flag (level 2)
  1395   002E50  0E00               	movlw	low (__Lsmallconst shr (0+16))
  1396   002E52  6EF8               	movwf	tblptru,c
  1397   002E54  0E06               	movlw	high __Lsmallconst
  1398   002E56  6EF7               	movwf	tblptrh,c
  1399   002E58  0100               	movlb	0
  1400   002E5A  EFA2  F018         	goto	_main	;jump to C main() function
  1401                           
  1402                           	psect	bssCOMRAM
  1403   00006F                     __pbssCOMRAM:
  1404                           	callstack 0
  1405   00006F                     _PWMDutyCycle:
  1406                           	callstack 0
  1407   00006F                     	ds	4
  1408   000073                     _flag:
  1409                           	callstack 0
  1410   000073                     	ds	2
  1411   000075                     _uart_buffer_idx:
  1412                           	callstack 0
  1413   000075                     	ds	2
  1414   000077                     _MotorDegree:
  1415                           	callstack 0
  1416   000077                     	ds	2
  1417                           
  1418                           	psect	bssBANK0
  1419   0000DB                     __pbssBANK0:
  1420                           	callstack 0
  1421   0000DB                     _start_val:
  1422                           	callstack 0
  1423   0000DB                     	ds	2
  1424   0000DD                     _state:
  1425                           	callstack 0
  1426   0000DD                     	ds	2
  1427   0000DF                     _prev_adc_val:
  1428                           	callstack 0
  1429   0000DF                     	ds	2
  1430                           
  1431                           	psect	dataBANK0
  1432   0000CC                     __pdataBANK0:
  1433                           	callstack 0
  1434   0000CC                     SystemInitialize@F2690:
  1435                           	callstack 0
  1436   0000CC                     	ds	8
  1437   0000D4                     SystemInitialize@F2688:
  1438                           	callstack 0
  1439   0000D4                     	ds	5
  1440   0000D9                     _duty_cycle_us:
  1441                           	callstack 0
  1442   0000D9                     	ds	2
  1443                           
  1444                           	psect	bssBANK1
  1445   000100                     __pbssBANK1:
  1446                           	callstack 0
  1447   000100                     _uart_buffer:
  1448                           	callstack 0
  1449   000100                     	ds	128
  1450                           
  1451                           	psect	dataBANK1
  1452   0001D1                     __pdataBANK1:
  1453                           	callstack 0
  1454   0001D1                     _Timer2Postscaler:
  1455                           	callstack 0
  1456   0001D1                     	ds	2
  1457   0001D3                     _Timer2Prescaler:
  1458                           	callstack 0
  1459   0001D3                     	ds	2
  1460                           
  1461                           	psect	bssBIGRAM
  1462   0001D5                     __pbssBIGRAM:
  1463                           	callstack 0
  1464   0001D5                     _pitch_duty_cycles:
  1465                           	callstack 0
  1466   0001D5                     	ds	360
  1467                           
  1468                           	psect	cstackBANK1
  1469   000180                     __pcstackBANK1:
  1470                           	callstack 0
  1471   000180                     ___fldiv@rem:
  1472                           	callstack 0
  1473                           
  1474                           ; 4 bytes @ 0x0
  1475   000180                     	ds	4
  1476   000184                     ___fldiv@sign:
  1477                           	callstack 0
  1478                           
  1479                           ; 1 bytes @ 0x4
  1480   000184                     	ds	1
  1481   000185                     ___fldiv@new_exp:
  1482                           	callstack 0
  1483                           
  1484                           ; 2 bytes @ 0x5
  1485   000185                     	ds	2
  1486   000187                     ___fldiv@grs:
  1487                           	callstack 0
  1488                           
  1489                           ; 4 bytes @ 0x7
  1490   000187                     	ds	4
  1491   00018B                     ___fldiv@bexp:
  1492                           	callstack 0
  1493                           
  1494                           ; 1 bytes @ 0xB
  1495   00018B                     	ds	1
  1496   00018C                     ___fldiv@aexp:
  1497                           	callstack 0
  1498                           
  1499                           ; 1 bytes @ 0xC
  1500   00018C                     	ds	1
  1501   00018D                     ??___fladd:
  1502                           
  1503                           ; 1 bytes @ 0xD
  1504   00018D                     	ds	4
  1505   000191                     ___fladd@signs:
  1506                           	callstack 0
  1507                           
  1508                           ; 1 bytes @ 0x11
  1509   000191                     	ds	1
  1510   000192                     ___fladd@aexp:
  1511                           	callstack 0
  1512                           
  1513                           ; 1 bytes @ 0x12
  1514   000192                     	ds	1
  1515   000193                     ___fladd@bexp:
  1516                           	callstack 0
  1517                           
  1518                           ; 1 bytes @ 0x13
  1519   000193                     	ds	1
  1520   000194                     ___fladd@grs:
  1521                           	callstack 0
  1522                           
  1523                           ; 1 bytes @ 0x14
  1524   000194                     	ds	1
  1525   000195                     ?___fltol:
  1526                           	callstack 0
  1527   000195                     ___fltol@f1:
  1528                           	callstack 0
  1529                           
  1530                           ; 4 bytes @ 0x15
  1531   000195                     	ds	4
  1532   000199                     ??___fltol:
  1533                           
  1534                           ; 1 bytes @ 0x19
  1535   000199                     	ds	4
  1536   00019D                     ___fltol@sign1:
  1537                           	callstack 0
  1538                           
  1539                           ; 1 bytes @ 0x1D
  1540   00019D                     	ds	1
  1541   00019E                     ___fltol@exp1:
  1542                           	callstack 0
  1543                           
  1544                           ; 1 bytes @ 0x1E
  1545   00019E                     	ds	1
  1546   00019F                     Timer2Initialize@prescaler:
  1547                           	callstack 0
  1548   00019F                     PWMSetPeriod@period_ms:
  1549                           	callstack 0
  1550   00019F                     PWMSetDutyCycle@duty_cycle_us:
  1551                           	callstack 0
  1552                           
  1553                           ; 4 bytes @ 0x1F
  1554   00019F                     	ds	2
  1555   0001A1                     Timer2Initialize@postscaler:
  1556                           	callstack 0
  1557                           
  1558                           ; 2 bytes @ 0x21
  1559   0001A1                     	ds	2
  1560   0001A3                     Timer2Initialize@period_ms:
  1561                           	callstack 0
  1562   0001A3                     ??_PWMSetPeriod:
  1563   0001A3                     ??_PWMSetDutyCycle:
  1564                           
  1565                           ; 1 bytes @ 0x23
  1566   0001A3                     	ds	2
  1567   0001A5                     PWMSetPeriod@prescaler:
  1568                           	callstack 0
  1569                           
  1570                           ; 2 bytes @ 0x25
  1571   0001A5                     	ds	2
  1572   0001A7                     ??_Timer2Initialize:
  1573                           
  1574                           ; 1 bytes @ 0x27
  1575   0001A7                     	ds	4
  1576   0001AB                     Timer2Initialize@priority:
  1577                           	callstack 0
  1578                           
  1579                           ; 1 bytes @ 0x2B
  1580   0001AB                     	ds	1
  1581   0001AC                     PWMInitialize@period_ms:
  1582                           	callstack 0
  1583   0001AC                     _PWMSetDutyCycle$2083:
  1584                           	callstack 0
  1585                           
  1586                           ; 4 bytes @ 0x2C
  1587   0001AC                     	ds	4
  1588   0001B0                     PWMSetDutyCycle@prescaler:
  1589                           	callstack 0
  1590   0001B0                     ComponentInitialize@int_config:
  1591                           	callstack 0
  1592                           
  1593                           ; 2 bytes @ 0x30
  1594   0001B0                     	ds	2
  1595   0001B2                     PWMSetDutyCycle@val:
  1596                           	callstack 0
  1597   0001B2                     ComponentInitialize@component_config:
  1598                           	callstack 0
  1599                           
  1600                           ; 8 bytes @ 0x32
  1601   0001B2                     	ds	8
  1602   0001BA                     
  1603                           ; 1 bytes @ 0x3A
  1604   0001BA                     	ds	1
  1605   0001BB                     _ComponentInitialize$2084:
  1606                           	callstack 0
  1607                           
  1608                           ; 4 bytes @ 0x3B
  1609   0001BB                     	ds	4
  1610   0001BF                     _ComponentInitialize$2085:
  1611                           	callstack 0
  1612                           
  1613                           ; 4 bytes @ 0x3F
  1614   0001BF                     	ds	4
  1615   0001C3                     ComponentInitialize@components:
  1616                           	callstack 0
  1617                           
  1618                           ; 1 bytes @ 0x43
  1619   0001C3                     	ds	1
  1620   0001C4                     SystemInitialize@component_config:
  1621                           	callstack 0
  1622                           
  1623                           ; 8 bytes @ 0x44
  1624   0001C4                     	ds	8
  1625   0001CC                     SystemInitialize@int_config:
  1626                           	callstack 0
  1627                           
  1628                           ; 5 bytes @ 0x4C
  1629   0001CC                     	ds	5
  1630                           
  1631                           	psect	cstackBANK0
  1632   000080                     __pcstackBANK0:
  1633                           	callstack 0
  1634   000080                     LowIsr@str:
  1635                           	callstack 0
  1636                           
  1637                           ; 20 bytes @ 0x0
  1638   000080                     	ds	20
  1639   000094                     _LowIsr$2191:
  1640                           	callstack 0
  1641                           
  1642                           ; 4 bytes @ 0x14
  1643   000094                     	ds	4
  1644   000098                     _LowIsr$2192:
  1645                           	callstack 0
  1646                           
  1647                           ; 4 bytes @ 0x18
  1648   000098                     	ds	4
  1649   00009C                     LowIsr@val:
  1650                           	callstack 0
  1651                           
  1652                           ; 2 bytes @ 0x1C
  1653   00009C                     	ds	2
  1654   00009E                     LowIsr@ch:
  1655                           	callstack 0
  1656                           
  1657                           ; 1 bytes @ 0x1E
  1658   00009E                     	ds	1
  1659   00009F                     ?_Timer2GetPrescaler:
  1660                           	callstack 0
  1661   00009F                     ?___flmul:
  1662                           	callstack 0
  1663   00009F                     ?___xxtofl:
  1664                           	callstack 0
  1665   00009F                     AdcEnableInterrupt@priority:
  1666                           	callstack 0
  1667   00009F                     TxEnableInterrupt@priority:
  1668                           	callstack 0
  1669   00009F                     RxEnableInterrupt@priority:
  1670                           	callstack 0
  1671   00009F                     ButtonInitialize@interrupt:
  1672                           	callstack 0
  1673   00009F                     ___flmul@b:
  1674                           	callstack 0
  1675   00009F                     ___xxtofl@val:
  1676                           	callstack 0
  1677   00009F                     
  1678                           ; 1 bytes @ 0x1F
  1679   00009F                     	ds	1
  1680   0000A0                     AdcInitialize@int_priority:
  1681                           	callstack 0
  1682   0000A0                     UartInitialize@rx_priority:
  1683                           	callstack 0
  1684   0000A0                     
  1685                           ; 1 bytes @ 0x20
  1686   0000A0                     	ds	1
  1687   0000A1                     UartInitialize@tx_priority:
  1688                           	callstack 0
  1689   0000A1                     
  1690                           ; 1 bytes @ 0x21
  1691   0000A1                     	ds	2
  1692   0000A3                     ___flmul@a:
  1693                           	callstack 0
  1694   0000A3                     ??___xxtofl:
  1695                           
  1696                           ; 1 bytes @ 0x23
  1697   0000A3                     	ds	4
  1698   0000A7                     ___xxtofl@sign:
  1699                           	callstack 0
  1700   0000A7                     ??___flmul:
  1701                           
  1702                           ; 1 bytes @ 0x27
  1703   0000A7                     	ds	1
  1704   0000A8                     ___xxtofl@exp:
  1705                           	callstack 0
  1706                           
  1707                           ; 1 bytes @ 0x28
  1708   0000A8                     	ds	1
  1709   0000A9                     ___xxtofl@arg:
  1710                           	callstack 0
  1711                           
  1712                           ; 4 bytes @ 0x29
  1713   0000A9                     	ds	2
  1714   0000AB                     ___flmul@sign:
  1715                           	callstack 0
  1716                           
  1717                           ; 1 bytes @ 0x2B
  1718   0000AB                     	ds	1
  1719   0000AC                     ___flmul@grs:
  1720                           	callstack 0
  1721                           
  1722                           ; 4 bytes @ 0x2C
  1723   0000AC                     	ds	4
  1724   0000B0                     ___flmul@aexp:
  1725                           	callstack 0
  1726                           
  1727                           ; 1 bytes @ 0x30
  1728   0000B0                     	ds	1
  1729   0000B1                     ___flmul@bexp:
  1730                           	callstack 0
  1731                           
  1732                           ; 1 bytes @ 0x31
  1733   0000B1                     	ds	1
  1734   0000B2                     ___flmul@prod:
  1735                           	callstack 0
  1736                           
  1737                           ; 4 bytes @ 0x32
  1738   0000B2                     	ds	4
  1739   0000B6                     ___flmul@temp:
  1740                           	callstack 0
  1741                           
  1742                           ; 2 bytes @ 0x36
  1743   0000B6                     	ds	2
  1744   0000B8                     ?___fldiv:
  1745                           	callstack 0
  1746   0000B8                     ___fldiv@b:
  1747                           	callstack 0
  1748                           
  1749                           ; 4 bytes @ 0x38
  1750   0000B8                     	ds	4
  1751   0000BC                     ___fldiv@a:
  1752                           	callstack 0
  1753                           
  1754                           ; 4 bytes @ 0x3C
  1755   0000BC                     	ds	4
  1756   0000C0                     ??___fldiv:
  1757                           
  1758                           ; 1 bytes @ 0x40
  1759   0000C0                     	ds	4
  1760   0000C4                     ?___fladd:
  1761                           	callstack 0
  1762   0000C4                     ___fladd@b:
  1763                           	callstack 0
  1764                           
  1765                           ; 4 bytes @ 0x44
  1766   0000C4                     	ds	4
  1767   0000C8                     ___fladd@a:
  1768                           	callstack 0
  1769                           
  1770                           ; 4 bytes @ 0x48
  1771   0000C8                     	ds	4
  1772   0000CC                     
  1773                           ; 1 bytes @ 0x4C
  1774                           
  1775                           	psect	cstackCOMRAM
  1776   000001                     __pcstackCOMRAM:
  1777                           	callstack 0
  1778   000001                     ?_atoi:
  1779                           	callstack 0
  1780   000001                     ?i1_Timer2GetPrescaler:
  1781                           	callstack 0
  1782   000001                     ?i1___xxtofl:
  1783                           	callstack 0
  1784   000001                     UartSendChar@c:
  1785                           	callstack 0
  1786   000001                     UartCopyBufferToString@str:
  1787                           	callstack 0
  1788   000001                     atoi@s:
  1789                           	callstack 0
  1790   000001                     i1___xxtofl@val:
  1791                           	callstack 0
  1792   000001                     
  1793                           ; 1 bytes @ 0x0
  1794   000001                     	ds	1
  1795   000002                     UartReceiveChar@c:
  1796                           	callstack 0
  1797   000002                     ??_UartCopyBufferToString:
  1798                           
  1799                           ; 1 bytes @ 0x1
  1800   000002                     	ds	1
  1801   000003                     UartCopyBufferToString@i:
  1802                           	callstack 0
  1803   000003                     ??_atoi:
  1804   000003                     
  1805                           ; 1 bytes @ 0x2
  1806   000003                     	ds	2
  1807   000005                     ??i1___xxtofl:
  1808                           
  1809                           ; 1 bytes @ 0x4
  1810   000005                     	ds	1
  1811   000006                     atoi@neg:
  1812                           	callstack 0
  1813                           
  1814                           ; 1 bytes @ 0x5
  1815   000006                     	ds	1
  1816   000007                     atoi@n:
  1817                           	callstack 0
  1818                           
  1819                           ; 2 bytes @ 0x6
  1820   000007                     	ds	2
  1821   000009                     i1___xxtofl@sign:
  1822                           	callstack 0
  1823                           
  1824                           ; 1 bytes @ 0x8
  1825   000009                     	ds	1
  1826   00000A                     i1___xxtofl@exp:
  1827                           	callstack 0
  1828                           
  1829                           ; 1 bytes @ 0x9
  1830   00000A                     	ds	1
  1831   00000B                     i1___xxtofl@arg:
  1832                           	callstack 0
  1833                           
  1834                           ; 4 bytes @ 0xA
  1835   00000B                     	ds	4
  1836   00000F                     ?i1___flmul:
  1837                           	callstack 0
  1838   00000F                     i1___flmul@b:
  1839                           	callstack 0
  1840                           
  1841                           ; 4 bytes @ 0xE
  1842   00000F                     	ds	4
  1843   000013                     i1___flmul@a:
  1844                           	callstack 0
  1845                           
  1846                           ; 4 bytes @ 0x12
  1847   000013                     	ds	4
  1848   000017                     ??i1___flmul:
  1849                           
  1850                           ; 1 bytes @ 0x16
  1851   000017                     	ds	4
  1852   00001B                     i1___flmul@sign:
  1853                           	callstack 0
  1854                           
  1855                           ; 1 bytes @ 0x1A
  1856   00001B                     	ds	1
  1857   00001C                     i1___flmul@grs:
  1858                           	callstack 0
  1859                           
  1860                           ; 4 bytes @ 0x1B
  1861   00001C                     	ds	4
  1862   000020                     i1___flmul@aexp:
  1863                           	callstack 0
  1864                           
  1865                           ; 1 bytes @ 0x1F
  1866   000020                     	ds	1
  1867   000021                     i1___flmul@bexp:
  1868                           	callstack 0
  1869                           
  1870                           ; 1 bytes @ 0x20
  1871   000021                     	ds	1
  1872   000022                     i1___flmul@prod:
  1873                           	callstack 0
  1874                           
  1875                           ; 4 bytes @ 0x21
  1876   000022                     	ds	4
  1877   000026                     i1___flmul@temp:
  1878                           	callstack 0
  1879                           
  1880                           ; 2 bytes @ 0x25
  1881   000026                     	ds	2
  1882   000028                     ?i1___fldiv:
  1883                           	callstack 0
  1884   000028                     i1___fldiv@b:
  1885                           	callstack 0
  1886                           
  1887                           ; 4 bytes @ 0x27
  1888   000028                     	ds	4
  1889   00002C                     i1___fldiv@a:
  1890                           	callstack 0
  1891                           
  1892                           ; 4 bytes @ 0x2B
  1893   00002C                     	ds	4
  1894   000030                     ??i1___fldiv:
  1895                           
  1896                           ; 1 bytes @ 0x2F
  1897   000030                     	ds	4
  1898   000034                     i1___fldiv@rem:
  1899                           	callstack 0
  1900                           
  1901                           ; 4 bytes @ 0x33
  1902   000034                     	ds	4
  1903   000038                     i1___fldiv@sign:
  1904                           	callstack 0
  1905                           
  1906                           ; 1 bytes @ 0x37
  1907   000038                     	ds	1
  1908   000039                     i1___fldiv@new_exp:
  1909                           	callstack 0
  1910                           
  1911                           ; 2 bytes @ 0x38
  1912   000039                     	ds	2
  1913   00003B                     i1___fldiv@grs:
  1914                           	callstack 0
  1915                           
  1916                           ; 4 bytes @ 0x3A
  1917   00003B                     	ds	4
  1918   00003F                     i1___fldiv@bexp:
  1919                           	callstack 0
  1920                           
  1921                           ; 1 bytes @ 0x3E
  1922   00003F                     	ds	1
  1923   000040                     i1___fldiv@aexp:
  1924                           	callstack 0
  1925                           
  1926                           ; 1 bytes @ 0x3F
  1927   000040                     	ds	1
  1928   000041                     ?i1___fltol:
  1929                           	callstack 0
  1930   000041                     ?i1___fladd:
  1931                           	callstack 0
  1932   000041                     i1___fltol@f1:
  1933                           	callstack 0
  1934   000041                     i1___fladd@b:
  1935                           	callstack 0
  1936                           
  1937                           ; 4 bytes @ 0x40
  1938   000041                     	ds	4
  1939   000045                     i1___fladd@a:
  1940                           	callstack 0
  1941   000045                     ??i1___fltol:
  1942                           
  1943                           ; 1 bytes @ 0x44
  1944   000045                     	ds	4
  1945   000049                     i1___fltol@sign1:
  1946                           	callstack 0
  1947   000049                     ??i1___fladd:
  1948                           
  1949                           ; 1 bytes @ 0x48
  1950   000049                     	ds	1
  1951   00004A                     i1___fltol@exp1:
  1952                           	callstack 0
  1953                           
  1954                           ; 1 bytes @ 0x49
  1955   00004A                     	ds	1
  1956   00004B                     i1PWMSetDutyCycle@duty_cycle_us:
  1957                           	callstack 0
  1958                           
  1959                           ; 4 bytes @ 0x4A
  1960   00004B                     	ds	2
  1961   00004D                     i1___fladd@signs:
  1962                           	callstack 0
  1963                           
  1964                           ; 1 bytes @ 0x4C
  1965   00004D                     	ds	1
  1966   00004E                     i1___fladd@aexp:
  1967                           	callstack 0
  1968                           
  1969                           ; 1 bytes @ 0x4D
  1970   00004E                     	ds	1
  1971   00004F                     i1___fladd@bexp:
  1972                           	callstack 0
  1973   00004F                     ??i1_PWMSetDutyCycle:
  1974                           
  1975                           ; 1 bytes @ 0x4E
  1976   00004F                     	ds	1
  1977   000050                     i1___fladd@grs:
  1978                           	callstack 0
  1979                           
  1980                           ; 1 bytes @ 0x4F
  1981   000050                     	ds	8
  1982   000058                     i1_PWMSetDutyCycle$2193:
  1983                           	callstack 0
  1984                           
  1985                           ; 4 bytes @ 0x57
  1986   000058                     	ds	4
  1987   00005C                     i1PWMSetDutyCycle@prescaler:
  1988                           	callstack 0
  1989                           
  1990                           ; 2 bytes @ 0x5B
  1991   00005C                     	ds	2
  1992   00005E                     i1PWMSetDutyCycle@val:
  1993                           	callstack 0
  1994                           
  1995                           ; 8 bytes @ 0x5D
  1996   00005E                     	ds	8
  1997   000066                     ??_LowIsr:
  1998                           
  1999                           ; 1 bytes @ 0x65
  2000   000066                     	ds	9
  2001                           
  2002 ;;
  2003 ;;Main: autosize = 0, tempsize = 0, incstack = 0, save=0
  2004 ;;
  2005 ;; *************** function _main *****************
  2006 ;; Defined at:
  2007 ;;		line 62 in file "main.c"
  2008 ;; Parameters:    Size  Location     Type
  2009 ;;		None
  2010 ;; Auto vars:     Size  Location     Type
  2011 ;;		None
  2012 ;; Return value:  Size  Location     Type
  2013 ;;                  1    wreg      void 
  2014 ;; Registers used:
  2015 ;;		wreg, fsr0l, fsr0h, fsr1l, fsr1h, fsr2l, fsr2h, status,2, status,0, prodl, prodh, cstack
  2016 ;; Tracked objects:
  2017 ;;		On entry : 0/0
  2018 ;;		On exit  : 0/0
  2019 ;;		Unchanged: 0/0
  2020 ;; Data sizes:     COMRAM   BANK0   BANK1   BANK2   BANK3   BANK4   BANK5
  2021 ;;      Params:         0       0       0       0       0       0       0
  2022 ;;      Locals:         0       0       0       0       0       0       0
  2023 ;;      Temps:          0       0       0       0       0       0       0
  2024 ;;      Totals:         0       0       0       0       0       0       0
  2025 ;;Total ram usage:        0 bytes
  2026 ;; Hardware stack levels required when called: 9
  2027 ;; This function calls:
  2028 ;;		_SystemInitialize
  2029 ;; This function is called by:
  2030 ;;		Startup code after reset
  2031 ;; This function uses a non-reentrant model
  2032 ;;
  2033                           
  2034                           	psect	text0
  2035   003144                     __ptext0:
  2036                           	callstack 0
  2037   003144                     _main:
  2038                           	callstack 22
  2039   003144                     
  2040                           ;main.c: 63:     SystemInitialize();
  2041   003144  EC2F  F017         	call	_SystemInitialize	;wreg free
  2042   003148                     l299:
  2043   003148  EFA4  F018         	goto	l299
  2044   00314C  EFD6  F000         	goto	start
  2045   003150                     __end_of_main:
  2046                           	callstack 0
  2047                           
  2048 ;; *************** function _SystemInitialize *****************
  2049 ;; Defined at:
  2050 ;;		line 41 in file "main.c"
  2051 ;; Parameters:    Size  Location     Type
  2052 ;;		None
  2053 ;; Auto vars:     Size  Location     Type
  2054 ;;  component_co    8   68[BANK1 ] struct .
  2055 ;;  int_config      5   76[BANK1 ] struct .
  2056 ;; Return value:  Size  Location     Type
  2057 ;;                  1    wreg      void 
  2058 ;; Registers used:
  2059 ;;		wreg, fsr0l, fsr0h, fsr1l, fsr1h, fsr2l, fsr2h, status,2, status,0, prodl, prodh, cstack
  2060 ;; Tracked objects:
  2061 ;;		On entry : 0/0
  2062 ;;		On exit  : 0/0
  2063 ;;		Unchanged: 0/0
  2064 ;; Data sizes:     COMRAM   BANK0   BANK1   BANK2   BANK3   BANK4   BANK5
  2065 ;;      Params:         0       0       0       0       0       0       0
  2066 ;;      Locals:         0       0      13       0       0       0       0
  2067 ;;      Temps:          0       0       0       0       0       0       0
  2068 ;;      Totals:         0       0      13       0       0       0       0
  2069 ;;Total ram usage:       13 bytes
  2070 ;; Hardware stack levels used: 1
  2071 ;; Hardware stack levels required when called: 8
  2072 ;; This function calls:
  2073 ;;		_ComponentInitialize
  2074 ;;		_OscillatorInitialize
  2075 ;;		_PWMSetDutyCycle
  2076 ;; This function is called by:
  2077 ;;		_main
  2078 ;; This function uses a non-reentrant model
  2079 ;;
  2080                           
  2081                           	psect	text1
  2082   002E5E                     __ptext1:
  2083                           	callstack 0
  2084   002E5E                     _SystemInitialize:
  2085                           	callstack 22
  2086   002E5E                     
  2087                           ;main.c: 42:     IntConfig int_config = {
  2088   002E5E  EE20  F0D4         	lfsr	2,SystemInitialize@F2688
  2089   002E62  EE11  F0CC         	lfsr	1,SystemInitialize@int_config
  2090   002E66  0E04               	movlw	4
  2091   002E68                     u5811:
  2092   002E68  CFDB FFE3          	movff	plusw2,plusw1
  2093   002E6C  06E8               	decf	wreg,f,c
  2094   002E6E  E2FC               	bc	u5811
  2095                           
  2096                           ;main.c: 49:     ComponentConfig component_config = {
  2097   002E70  EE20  F0CC         	lfsr	2,SystemInitialize@F2690
  2098   002E74  EE11  F0C4         	lfsr	1,SystemInitialize@component_config
  2099   002E78  0E07               	movlw	7
  2100   002E7A                     u5821:
  2101   002E7A  CFDB FFE3          	movff	plusw2,plusw1
  2102   002E7E  06E8               	decf	wreg,f,c
  2103   002E80  E2FC               	bc	u5821
  2104   002E82                     
  2105                           ;main.c: 56:     OscillatorInitialize();
  2106   002E82  ECB8  F018         	call	_OscillatorInitialize	;wreg free
  2107   002E86                     
  2108                           ;main.c: 57:     ComponentInitialize(COMPONENT_LED | COMPONENT_UART | COMPONENT_PWM,
  2109   002E86  0ECC               	movlw	low SystemInitialize@int_config
  2110   002E88  0101               	movlb	1	; () banked
  2111   002E8A  6FB0               	movwf	ComponentInitialize@int_config& (0+255),b
  2112   002E8C  0E01               	movlw	high SystemInitialize@int_config
  2113   002E8E  6FB1               	movwf	(ComponentInitialize@int_config+1)& (0+255),b
  2114   002E90  EE21  F0C4         	lfsr	2,SystemInitialize@component_config
  2115   002E94  EE01  F0B2         	lfsr	0,ComponentInitialize@component_config
  2116   002E98  0E07               	movlw	7
  2117   002E9A                     u5831:
  2118   002E9A  CFDB FFEB          	movff	plusw2,plusw0
  2119   002E9E  06E8               	decf	wreg,f,c
  2120   002EA0  E2FC               	bc	u5831
  2121   002EA2  0E19               	movlw	25
  2122   002EA4  EC09  F010         	call	_ComponentInitialize
  2123   002EA8                     
  2124                           ;main.c: 59:     PWMSetDutyCycle(500);
  2125   002EA8  0E00               	movlw	0
  2126   002EAA  0101               	movlb	1	; () banked
  2127   002EAC  6F9F               	movwf	PWMSetDutyCycle@duty_cycle_us& (0+255),b
  2128   002EAE  0E00               	movlw	0
  2129   002EB0  6FA0               	movwf	(PWMSetDutyCycle@duty_cycle_us+1)& (0+255),b
  2130   002EB2  0EFA               	movlw	250
  2131   002EB4  6FA1               	movwf	(PWMSetDutyCycle@duty_cycle_us+2)& (0+255),b
  2132   002EB6  0E43               	movlw	67
  2133   002EB8  6FA2               	movwf	(PWMSetDutyCycle@duty_cycle_us+3)& (0+255),b
  2134   002EBA  ECE8  F012         	call	_PWMSetDutyCycle	;wreg free
  2135   002EBE  0012               	return		;funcret
  2136   002EC0                     __end_of_SystemInitialize:
  2137                           	callstack 0
  2138                           
  2139 ;; *************** function _PWMSetDutyCycle *****************
  2140 ;; Defined at:
  2141 ;;		line 29 in file "utils/ccp.c"
  2142 ;; Parameters:    Size  Location     Type
  2143 ;;  duty_cycle_u    4   31[BANK1 ] void 
  2144 ;; Auto vars:     Size  Location     Type
  2145 ;;  val             8   50[BANK1 ] long long 
  2146 ;;  prescaler       2   48[BANK1 ] int 
  2147 ;; Return value:  Size  Location     Type
  2148 ;;                  1    wreg      void 
  2149 ;; Registers used:
  2150 ;;		wreg, status,2, status,0, prodl, prodh, cstack
  2151 ;; Tracked objects:
  2152 ;;		On entry : 0/0
  2153 ;;		On exit  : 0/0
  2154 ;;		Unchanged: 0/0
  2155 ;; Data sizes:     COMRAM   BANK0   BANK1   BANK2   BANK3   BANK4   BANK5
  2156 ;;      Params:         0       0       4       0       0       0       0
  2157 ;;      Locals:         0       0      14       0       0       0       0
  2158 ;;      Temps:          0       0       9       0       0       0       0
  2159 ;;      Totals:         0       0      27       0       0       0       0
  2160 ;;Total ram usage:       27 bytes
  2161 ;; Hardware stack levels used: 1
  2162 ;; Hardware stack levels required when called: 5
  2163 ;; This function calls:
  2164 ;;		_Timer2GetPrescaler
  2165 ;;		___fldiv
  2166 ;;		___flmul
  2167 ;;		___fltol
  2168 ;;		___xxtofl
  2169 ;; This function is called by:
  2170 ;;		_SystemInitialize
  2171 ;;		_MotorRotateWithDelay
  2172 ;;		_MotorRotateDegree
  2173 ;; This function uses a non-reentrant model
  2174 ;;
  2175                           
  2176                           	psect	text2
  2177   0025D0                     __ptext2:
  2178                           	callstack 0
  2179   0025D0                     _PWMSetDutyCycle:
  2180                           	callstack 24
  2181   0025D0                     
  2182                           ;utils/ccp.c: 36:     PWMDutyCycle = duty_cycle_us;
  2183   0025D0  C19F  F06F         	movff	PWMSetDutyCycle@duty_cycle_us,_PWMDutyCycle
  2184   0025D4  C1A0  F070         	movff	PWMSetDutyCycle@duty_cycle_us+1,_PWMDutyCycle+1
  2185   0025D8  C1A1  F071         	movff	PWMSetDutyCycle@duty_cycle_us+2,_PWMDutyCycle+2
  2186   0025DC  C1A2  F072         	movff	PWMSetDutyCycle@duty_cycle_us+3,_PWMDutyCycle+3
  2187   0025E0                     
  2188                           ;utils/ccp.c: 37:     int prescaler = Timer2GetPrescaler();
  2189   0025E0  ECAE  F018         	call	_Timer2GetPrescaler	;wreg free
  2190   0025E4  C09F  F1B0         	movff	?_Timer2GetPrescaler,PWMSetDutyCycle@prescaler
  2191   0025E8  C0A0  F1B1         	movff	?_Timer2GetPrescaler+1,PWMSetDutyCycle@prescaler+1
  2192   0025EC                     
  2193                           ;utils/ccp.c: 38:     long long val = (PWMDutyCycle * 4000000 / 1000000) / prescaler;
  2194   0025EC  0E00               	movlw	0
  2195   0025EE  0100               	movlb	0	; () banked
  2196   0025F0  6FBC               	movwf	___fldiv@a& (0+255),b
  2197   0025F2  0E24               	movlw	36
  2198   0025F4  6FBD               	movwf	(___fldiv@a+1)& (0+255),b
  2199   0025F6  0E74               	movlw	116
  2200   0025F8  6FBE               	movwf	(___fldiv@a+2)& (0+255),b
  2201   0025FA  0E49               	movlw	73
  2202   0025FC  6FBF               	movwf	(___fldiv@a+3)& (0+255),b
  2203   0025FE  0E00               	movlw	0
  2204   002600  6FA3               	movwf	___flmul@a& (0+255),b
  2205   002602  0E24               	movlw	36
  2206   002604  6FA4               	movwf	(___flmul@a+1)& (0+255),b
  2207   002606  0E74               	movlw	116
  2208   002608  6FA5               	movwf	(___flmul@a+2)& (0+255),b
  2209   00260A  0E4A               	movlw	74
  2210   00260C  6FA6               	movwf	(___flmul@a+3)& (0+255),b
  2211   00260E  C06F  F09F         	movff	_PWMDutyCycle,___flmul@b
  2212   002612  C070  F0A0         	movff	_PWMDutyCycle+1,___flmul@b+1
  2213   002616  C071  F0A1         	movff	_PWMDutyCycle+2,___flmul@b+2
  2214   00261A  C072  F0A2         	movff	_PWMDutyCycle+3,___flmul@b+3
  2215   00261E  EC08  F008         	call	___flmul	;wreg free
  2216   002622  C09F  F0B8         	movff	?___flmul,___fldiv@b
  2217   002626  C0A0  F0B9         	movff	?___flmul+1,___fldiv@b+1
  2218   00262A  C0A1  F0BA         	movff	?___flmul+2,___fldiv@b+2
  2219   00262E  C0A2  F0BB         	movff	?___flmul+3,___fldiv@b+3
  2220   002632  EC2F  F00C         	call	___fldiv	;wreg free
  2221   002636  C0B8  F1AC         	movff	?___fldiv,_PWMSetDutyCycle$2083
  2222   00263A  C0B9  F1AD         	movff	?___fldiv+1,_PWMSetDutyCycle$2083+1
  2223   00263E  C0BA  F1AE         	movff	?___fldiv+2,_PWMSetDutyCycle$2083+2
  2224   002642  C0BB  F1AF         	movff	?___fldiv+3,_PWMSetDutyCycle$2083+3
  2225   002646                     
  2226                           ;utils/ccp.c: 38:     long long val = (PWMDutyCycle * 4000000 / 1000000) / prescaler;
  2227   002646  C1B0  F09F         	movff	PWMSetDutyCycle@prescaler,___xxtofl@val
  2228   00264A  C1B1  F0A0         	movff	PWMSetDutyCycle@prescaler+1,___xxtofl@val+1
  2229   00264E  0100               	movlb	0	; () banked
  2230   002650  0E00               	movlw	0
  2231   002652  BFA0               	btfsc	(___xxtofl@val+1)& (0+255),7,b
  2232   002654  0EFF               	movlw	-1
  2233   002656  6FA1               	movwf	(___xxtofl@val+2)& (0+255),b
  2234   002658  6FA2               	movwf	(___xxtofl@val+3)& (0+255),b
  2235   00265A  0E01               	movlw	1
  2236   00265C  EC32  F011         	call	___xxtofl
  2237   002660  C09F  F0BC         	movff	?___xxtofl,___fldiv@a
  2238   002664  C0A0  F0BD         	movff	?___xxtofl+1,___fldiv@a+1
  2239   002668  C0A1  F0BE         	movff	?___xxtofl+2,___fldiv@a+2
  2240   00266C  C0A2  F0BF         	movff	?___xxtofl+3,___fldiv@a+3
  2241   002670  C1AC  F0B8         	movff	_PWMSetDutyCycle$2083,___fldiv@b
  2242   002674  C1AD  F0B9         	movff	_PWMSetDutyCycle$2083+1,___fldiv@b+1
  2243   002678  C1AE  F0BA         	movff	_PWMSetDutyCycle$2083+2,___fldiv@b+2
  2244   00267C  C1AF  F0BB         	movff	_PWMSetDutyCycle$2083+3,___fldiv@b+3
  2245   002680  EC2F  F00C         	call	___fldiv	;wreg free
  2246   002684  C0B8  F195         	movff	?___fldiv,___fltol@f1
  2247   002688  C0B9  F196         	movff	?___fldiv+1,___fltol@f1+1
  2248   00268C  C0BA  F197         	movff	?___fldiv+2,___fltol@f1+2
  2249   002690  C0BB  F198         	movff	?___fldiv+3,___fltol@f1+3
  2250   002694  EC7E  F015         	call	___fltol	;wreg free
  2251   002698  0101               	movlb	1	; () banked
  2252   00269A  C195  F1A3         	movff	?___fltol,??_PWMSetDutyCycle
  2253   00269E  C196  F1A4         	movff	?___fltol+1,??_PWMSetDutyCycle+1
  2254   0026A2  C197  F1A5         	movff	?___fltol+2,??_PWMSetDutyCycle+2
  2255   0026A6  C198  F1A6         	movff	?___fltol+3,??_PWMSetDutyCycle+3
  2256   0026AA  6BA7               	clrf	(??_PWMSetDutyCycle+4)& (0+255),b
  2257   0026AC  BFA6               	btfsc	(??_PWMSetDutyCycle+3)& (0+255),7,b
  2258   0026AE  69A7               	setf	(??_PWMSetDutyCycle+4)& (0+255),b
  2259   0026B0  C1A7  F1A8         	movff	??_PWMSetDutyCycle+4,??_PWMSetDutyCycle+5
  2260   0026B4  C1A7  F1A9         	movff	??_PWMSetDutyCycle+4,??_PWMSetDutyCycle+6
  2261   0026B8  C1A7  F1AA         	movff	??_PWMSetDutyCycle+4,??_PWMSetDutyCycle+7
  2262   0026BC  C1A3  F1B2         	movff	??_PWMSetDutyCycle,PWMSetDutyCycle@val
  2263   0026C0  C1A4  F1B3         	movff	??_PWMSetDutyCycle+1,PWMSetDutyCycle@val+1
  2264   0026C4  C1A5  F1B4         	movff	??_PWMSetDutyCycle+2,PWMSetDutyCycle@val+2
  2265   0026C8  C1A6  F1B5         	movff	??_PWMSetDutyCycle+3,PWMSetDutyCycle@val+3
  2266   0026CC  C1A7  F1B6         	movff	??_PWMSetDutyCycle+4,PWMSetDutyCycle@val+4
  2267   0026D0  C1A8  F1B7         	movff	??_PWMSetDutyCycle+5,PWMSetDutyCycle@val+5
  2268   0026D4  C1A9  F1B8         	movff	??_PWMSetDutyCycle+6,PWMSetDutyCycle@val+6
  2269   0026D8  C1AA  F1B9         	movff	??_PWMSetDutyCycle+7,PWMSetDutyCycle@val+7
  2270   0026DC                     
  2271                           ; BSR set to: 1
  2272                           ;utils/ccp.c: 39:     CCPR1L = (val >> 2) & 0xFF;
  2273   0026DC  0E02               	movlw	2
  2274   0026DE  6FA3               	movwf	??_PWMSetDutyCycle& (0+255),b
  2275   0026E0  C1B2  F1A4         	movff	PWMSetDutyCycle@val,??_PWMSetDutyCycle+1
  2276   0026E4  C1B3  F1A5         	movff	PWMSetDutyCycle@val+1,??_PWMSetDutyCycle+2
  2277   0026E8  C1B4  F1A6         	movff	PWMSetDutyCycle@val+2,??_PWMSetDutyCycle+3
  2278   0026EC  C1B5  F1A7         	movff	PWMSetDutyCycle@val+3,??_PWMSetDutyCycle+4
  2279   0026F0  C1B6  F1A8         	movff	PWMSetDutyCycle@val+4,??_PWMSetDutyCycle+5
  2280   0026F4  C1B7  F1A9         	movff	PWMSetDutyCycle@val+5,??_PWMSetDutyCycle+6
  2281   0026F8  C1B8  F1AA         	movff	PWMSetDutyCycle@val+6,??_PWMSetDutyCycle+7
  2282   0026FC  C1B9  F1AB         	movff	PWMSetDutyCycle@val+7,??_PWMSetDutyCycle+8
  2283   002700                     u5635:
  2284   002700  67A3               	tstfsz	??_PWMSetDutyCycle& (0+255),b
  2285   002702  EF85  F013         	goto	u5636
  2286   002706  EF91  F013         	goto	u5637
  2287   00270A                     u5636:
  2288   00270A  35AB               	rlcf	(??_PWMSetDutyCycle+8)& (0+255),w,b
  2289   00270C  33AB               	rrcf	(??_PWMSetDutyCycle+8)& (0+255),f,b
  2290   00270E  33AA               	rrcf	(??_PWMSetDutyCycle+7)& (0+255),f,b
  2291   002710  33A9               	rrcf	(??_PWMSetDutyCycle+6)& (0+255),f,b
  2292   002712  33A8               	rrcf	(??_PWMSetDutyCycle+5)& (0+255),f,b
  2293   002714  33A7               	rrcf	(??_PWMSetDutyCycle+4)& (0+255),f,b
  2294   002716  33A6               	rrcf	(??_PWMSetDutyCycle+3)& (0+255),f,b
  2295   002718  33A5               	rrcf	(??_PWMSetDutyCycle+2)& (0+255),f,b
  2296   00271A  33A4               	rrcf	(??_PWMSetDutyCycle+1)& (0+255),f,b
  2297   00271C  2FA3               	decfsz	??_PWMSetDutyCycle& (0+255),f,b
  2298   00271E  EF80  F013         	goto	u5635
  2299   002722                     u5637:
  2300   002722  0101               	movlb	1	; () banked
  2301   002724  51A4               	movf	(??_PWMSetDutyCycle+1)& (0+255),w,b
  2302   002726  6EBE               	movwf	190,c	;volatile
  2303   002728                     
  2304                           ; BSR set to: 1
  2305                           ;utils/ccp.c: 40:     CCP1CONbits.DC1B = (val & 0x03);
  2306   002728  C1B2  F1A3         	movff	PWMSetDutyCycle@val,??_PWMSetDutyCycle
  2307   00272C  0E03               	movlw	3
  2308   00272E  17A3               	andwf	??_PWMSetDutyCycle& (0+255),f,b
  2309   002730  3BA3               	swapf	??_PWMSetDutyCycle& (0+255),f,b
  2310   002732  50BD               	movf	189,w,c	;volatile
  2311   002734  19A3               	xorwf	??_PWMSetDutyCycle& (0+255),w,b
  2312   002736  0BCF               	andlw	-49
  2313   002738  19A3               	xorwf	??_PWMSetDutyCycle& (0+255),w,b
  2314   00273A  6EBD               	movwf	189,c	;volatile
  2315   00273C                     
  2316                           ; BSR set to: 1
  2317   00273C  0012               	return		;funcret
  2318   00273E                     __end_of_PWMSetDutyCycle:
  2319                           	callstack 0
  2320                           
  2321 ;; *************** function _OscillatorInitialize *****************
  2322 ;; Defined at:
  2323 ;;		line 95 in file "utils/settings.c"
  2324 ;; Parameters:    Size  Location     Type
  2325 ;;		None
  2326 ;; Auto vars:     Size  Location     Type
  2327 ;;		None
  2328 ;; Return value:  Size  Location     Type
  2329 ;;                  1    wreg      void 
  2330 ;; Registers used:
  2331 ;;		None
  2332 ;; Tracked objects:
  2333 ;;		On entry : 0/0
  2334 ;;		On exit  : 0/0
  2335 ;;		Unchanged: 0/0
  2336 ;; Data sizes:     COMRAM   BANK0   BANK1   BANK2   BANK3   BANK4   BANK5
  2337 ;;      Params:         0       0       0       0       0       0       0
  2338 ;;      Locals:         0       0       0       0       0       0       0
  2339 ;;      Temps:          0       0       0       0       0       0       0
  2340 ;;      Totals:         0       0       0       0       0       0       0
  2341 ;;Total ram usage:        0 bytes
  2342 ;; Hardware stack levels used: 1
  2343 ;; Hardware stack levels required when called: 4
  2344 ;; This function calls:
  2345 ;;		Nothing
  2346 ;; This function is called by:
  2347 ;;		_SystemInitialize
  2348 ;; This function uses a non-reentrant model
  2349 ;;
  2350                           
  2351                           	psect	text3
  2352   003170                     __ptext3:
  2353                           	callstack 0
  2354   003170                     _OscillatorInitialize:
  2355                           	callstack 25
  2356   003170                     
  2357                           ;utils/settings.c: 96:     IRCF2 = (6 >> 2) & 0x01;
  2358   003170  8CD3               	bsf	4051,6,c	;volatile
  2359                           
  2360                           ;utils/settings.c: 97:     IRCF1 = (6 >> 1) & 0x01;
  2361   003172  8AD3               	bsf	4051,5,c	;volatile
  2362                           
  2363                           ;utils/settings.c: 98:     IRCF0 = 6 & 0x01;
  2364   003174  98D3               	bcf	4051,4,c	;volatile
  2365   003176  0012               	return		;funcret
  2366   003178                     __end_of_OscillatorInitialize:
  2367                           	callstack 0
  2368                           
  2369 ;; *************** function _ComponentInitialize *****************
  2370 ;; Defined at:
  2371 ;;		line 65 in file "utils/settings.c"
  2372 ;; Parameters:    Size  Location     Type
  2373 ;;  components      1    wreg     enum E2612
  2374 ;;  int_config      2   48[BANK1 ] PTR struct .
  2375 ;;		 -> SystemInitialize@int_config(5), 
  2376 ;;  component_co    8   50[BANK1 ] struct .
  2377 ;; Auto vars:     Size  Location     Type
  2378 ;;  components      1   67[BANK1 ] enum E2612
  2379 ;; Return value:  Size  Location     Type
  2380 ;;                  1    wreg      void 
  2381 ;; Registers used:
  2382 ;;		wreg, fsr2l, fsr2h, status,2, status,0, prodl, prodh, cstack
  2383 ;; Tracked objects:
  2384 ;;		On entry : 0/0
  2385 ;;		On exit  : 0/0
  2386 ;;		Unchanged: 0/0
  2387 ;; Data sizes:     COMRAM   BANK0   BANK1   BANK2   BANK3   BANK4   BANK5
  2388 ;;      Params:         0       0      10       0       0       0       0
  2389 ;;      Locals:         0       0       9       0       0       0       0
  2390 ;;      Temps:          0       0       1       0       0       0       0
  2391 ;;      Totals:         0       0      20       0       0       0       0
  2392 ;;Total ram usage:       20 bytes
  2393 ;; Hardware stack levels used: 1
  2394 ;; Hardware stack levels required when called: 7
  2395 ;; This function calls:
  2396 ;;		_AdcInitialize
  2397 ;;		_ButtonInitialize
  2398 ;;		_InterruptInitialize
  2399 ;;		_LedInitialize
  2400 ;;		_PWMInitialize
  2401 ;;		_Timer2Initialize
  2402 ;;		_UartInitialize
  2403 ;;		___xxtofl
  2404 ;; This function is called by:
  2405 ;;		_SystemInitialize
  2406 ;; This function uses a non-reentrant model
  2407 ;;
  2408                           
  2409                           	psect	text4
  2410   002012                     __ptext4:
  2411                           	callstack 0
  2412   002012                     _ComponentInitialize:
  2413                           	callstack 22
  2414                           
  2415                           ;incstack = 0
  2416                           ;ComponentInitialize@components stored from wreg
  2417   002012  0101               	movlb	1	; () banked
  2418   002014  6FC3               	movwf	ComponentInitialize@components& (0+255),b
  2419   002016                     
  2420                           ;utils/settings.c: 66:     if(int_config) InterruptInitialize();
  2421   002016  0101               	movlb	1	; () banked
  2422   002018  51B0               	movf	ComponentInitialize@int_config& (0+255),w,b
  2423   00201A  11B1               	iorwf	(ComponentInitialize@int_config+1)& (0+255),w,b
  2424   00201C  B4D8               	btfsc	status,2,c
  2425   00201E  EF13  F010         	goto	u5641
  2426   002022  EF15  F010         	goto	u5640
  2427   002026                     u5641:
  2428   002026  EF17  F010         	goto	l4322
  2429   00202A                     u5640:
  2430   00202A                     
  2431                           ; BSR set to: 1
  2432   00202A  ECBC  F018         	call	_InterruptInitialize	;wreg free
  2433   00202E                     l4322:
  2434                           
  2435                           ;utils/settings.c: 68:     if (components & COMPONENT_LED){
  2436   00202E  0101               	movlb	1	; () banked
  2437   002030  A1C3               	btfss	ComponentInitialize@components& (0+255),0,b
  2438   002032  EF1D  F010         	goto	u5651
  2439   002036  EF1F  F010         	goto	u5650
  2440   00203A                     u5651:
  2441   00203A  EF21  F010         	goto	l4326
  2442   00203E                     u5650:
  2443   00203E                     
  2444                           ; BSR set to: 1
  2445                           ;utils/settings.c: 69:         LedInitialize();
  2446   00203E  EC8B  F018         	call	_LedInitialize	;wreg free
  2447   002042                     l4326:
  2448                           
  2449                           ;utils/settings.c: 71:     if (components & COMPONENT_BUTTON){
  2450   002042  0101               	movlb	1	; () banked
  2451   002044  A3C3               	btfss	ComponentInitialize@components& (0+255),1,b
  2452   002046  EF27  F010         	goto	u5661
  2453   00204A  EF29  F010         	goto	u5660
  2454   00204E                     u5661:
  2455   00204E  EF4F  F010         	goto	l4336
  2456   002052                     u5660:
  2457   002052                     
  2458                           ; BSR set to: 1
  2459                           ;utils/settings.c: 72:         if(int_config && int_config->button != INTERRUPT_NONE){
  2460   002052  51B0               	movf	ComponentInitialize@int_config& (0+255),w,b
  2461   002054  11B1               	iorwf	(ComponentInitialize@int_config+1)& (0+255),w,b
  2462   002056  B4D8               	btfsc	status,2,c
  2463   002058  EF30  F010         	goto	u5671
  2464   00205C  EF32  F010         	goto	u5670
  2465   002060                     u5671:
  2466   002060  EF48  F010         	goto	l4334
  2467   002064                     u5670:
  2468   002064                     
  2469                           ; BSR set to: 1
  2470   002064  C1B0  FFD9         	movff	ComponentInitialize@int_config,fsr2l
  2471   002068  C1B1  FFDA         	movff	ComponentInitialize@int_config+1,fsr2h
  2472   00206C  0E02               	movlw	2
  2473   00206E  18DE               	xorwf	postinc2,w,c
  2474   002070  B4D8               	btfsc	status,2,c
  2475   002072  EF3D  F010         	goto	u5681
  2476   002076  EF3F  F010         	goto	u5680
  2477   00207A                     u5681:
  2478   00207A  EF48  F010         	goto	l4334
  2479   00207E                     u5680:
  2480   00207E                     
  2481                           ; BSR set to: 1
  2482                           ;utils/settings.c: 73:             ButtonInitialize(1);
  2483   00207E  0E00               	movlw	0
  2484   002080  0100               	movlb	0	; () banked
  2485   002082  6FA0               	movwf	(ButtonInitialize@interrupt+1)& (0+255),b
  2486   002084  0E01               	movlw	1
  2487   002086  6F9F               	movwf	ButtonInitialize@interrupt& (0+255),b
  2488   002088  EC51  F018         	call	_ButtonInitialize	;wreg free
  2489                           
  2490                           ;utils/settings.c: 74:         } else {
  2491   00208C  EF4F  F010         	goto	l4336
  2492   002090                     l4334:
  2493                           
  2494                           ; BSR set to: 1
  2495                           ;utils/settings.c: 75:             ButtonInitialize(0);
  2496   002090  0E00               	movlw	0
  2497   002092  0100               	movlb	0	; () banked
  2498   002094  6FA0               	movwf	(ButtonInitialize@interrupt+1)& (0+255),b
  2499   002096  0E00               	movlw	0
  2500   002098  6F9F               	movwf	ButtonInitialize@interrupt& (0+255),b
  2501   00209A  EC51  F018         	call	_ButtonInitialize	;wreg free
  2502   00209E                     l4336:
  2503                           
  2504                           ;utils/settings.c: 78:     if (components & COMPONENT_PWM){
  2505   00209E  0101               	movlb	1	; () banked
  2506   0020A0  A7C3               	btfss	ComponentInitialize@components& (0+255),3,b
  2507   0020A2  EF55  F010         	goto	u5691
  2508   0020A6  EF57  F010         	goto	u5690
  2509   0020AA                     u5691:
  2510   0020AA  EF78  F010         	goto	l4342
  2511   0020AE                     u5690:
  2512   0020AE                     
  2513                           ; BSR set to: 1
  2514                           ;utils/settings.c: 79:         PWMInitialize(component_config.pwm_period_ms);
  2515   0020AE  EE21  F0B8         	lfsr	2,ComponentInitialize@component_config+6
  2516   0020B2  CFDE F09F          	movff	postinc2,___xxtofl@val
  2517   0020B6  CFDD F0A0          	movff	postdec2,___xxtofl@val+1
  2518   0020BA  0100               	movlb	0	; () banked
  2519   0020BC  0E00               	movlw	0
  2520   0020BE  BFA0               	btfsc	(___xxtofl@val+1)& (0+255),7,b
  2521   0020C0  0EFF               	movlw	-1
  2522   0020C2  6FA1               	movwf	(___xxtofl@val+2)& (0+255),b
  2523   0020C4  6FA2               	movwf	(___xxtofl@val+3)& (0+255),b
  2524   0020C6  0E01               	movlw	1
  2525   0020C8  EC32  F011         	call	___xxtofl
  2526   0020CC  C09F  F1BB         	movff	?___xxtofl,_ComponentInitialize$2084
  2527   0020D0  C0A0  F1BC         	movff	?___xxtofl+1,_ComponentInitialize$2084+1
  2528   0020D4  C0A1  F1BD         	movff	?___xxtofl+2,_ComponentInitialize$2084+2
  2529   0020D8  C0A2  F1BE         	movff	?___xxtofl+3,_ComponentInitialize$2084+3
  2530   0020DC                     
  2531                           ;utils/settings.c: 79:         PWMInitialize(component_config.pwm_period_ms);
  2532   0020DC  C1BB  F1AC         	movff	_ComponentInitialize$2084,PWMInitialize@period_ms
  2533   0020E0  C1BC  F1AD         	movff	_ComponentInitialize$2084+1,PWMInitialize@period_ms+1
  2534   0020E4  C1BD  F1AE         	movff	_ComponentInitialize$2084+2,PWMInitialize@period_ms+2
  2535   0020E8  C1BE  F1AF         	movff	_ComponentInitialize$2084+3,PWMInitialize@period_ms+3
  2536   0020EC  ECD4  F017         	call	_PWMInitialize	;wreg free
  2537   0020F0                     l4342:
  2538                           
  2539                           ;utils/settings.c: 81:     if (components & COMPONENT_ADC) {
  2540   0020F0  0101               	movlb	1	; () banked
  2541   0020F2  A5C3               	btfss	ComponentInitialize@components& (0+255),2,b
  2542   0020F4  EF7E  F010         	goto	u5701
  2543   0020F8  EF80  F010         	goto	u5700
  2544   0020FC                     u5701:
  2545   0020FC  EF97  F010         	goto	l4350
  2546   002100                     u5700:
  2547   002100                     
  2548                           ; BSR set to: 1
  2549                           ;utils/settings.c: 82:         if(int_config) AdcInitialize(int_config->adc);
  2550   002100  51B0               	movf	ComponentInitialize@int_config& (0+255),w,b
  2551   002102  11B1               	iorwf	(ComponentInitialize@int_config+1)& (0+255),w,b
  2552   002104  B4D8               	btfsc	status,2,c
  2553   002106  EF87  F010         	goto	u5711
  2554   00210A  EF89  F010         	goto	u5710
  2555   00210E                     u5711:
  2556   00210E  EF94  F010         	goto	l4348
  2557   002112                     u5710:
  2558   002112                     
  2559                           ; BSR set to: 1
  2560   002112  EE20 F001          	lfsr	2,1
  2561   002116  51B0               	movf	ComponentInitialize@int_config& (0+255),w,b
  2562   002118  26D9               	addwf	fsr2l,f,c
  2563   00211A  51B1               	movf	(ComponentInitialize@int_config+1)& (0+255),w,b
  2564   00211C  22DA               	addwfc	fsr2h,f,c
  2565   00211E  50DF               	movf	indf2,w,c
  2566   002120  ECF8  F017         	call	_AdcInitialize
  2567   002124  EF97  F010         	goto	l4350
  2568   002128                     l4348:
  2569                           
  2570                           ; BSR set to: 1
  2571   002128  0E02               	movlw	2
  2572   00212A  ECF8  F017         	call	_AdcInitialize
  2573   00212E                     l4350:
  2574                           
  2575                           ;utils/settings.c: 85:     if (components & COMPONENT_TIMER) {
  2576   00212E  0101               	movlb	1	; () banked
  2577   002130  ABC3               	btfss	ComponentInitialize@components& (0+255),5,b
  2578   002132  EF9D  F010         	goto	u5721
  2579   002136  EF9F  F010         	goto	u5720
  2580   00213A                     u5721:
  2581   00213A  EF05  F011         	goto	l4362
  2582   00213E                     u5720:
  2583   00213E                     
  2584                           ; BSR set to: 1
  2585                           ;utils/settings.c: 86:         if(int_config) Timer2Initialize(int_config->timer, compon
      +                          ent_config.prescaler, component_config.postscaler, component_config.timer_period_ms);
  2586   00213E  51B0               	movf	ComponentInitialize@int_config& (0+255),w,b
  2587   002140  11B1               	iorwf	(ComponentInitialize@int_config+1)& (0+255),w,b
  2588   002142  B4D8               	btfsc	status,2,c
  2589   002144  EFA6  F010         	goto	u5731
  2590   002148  EFA8  F010         	goto	u5730
  2591   00214C                     u5731:
  2592   00214C  EFDB  F010         	goto	l4358
  2593   002150                     u5730:
  2594   002150                     
  2595                           ; BSR set to: 1
  2596   002150  EE21  F0B6         	lfsr	2,ComponentInitialize@component_config+4
  2597   002154  CFDE F09F          	movff	postinc2,___xxtofl@val
  2598   002158  CFDD F0A0          	movff	postdec2,___xxtofl@val+1
  2599   00215C  0100               	movlb	0	; () banked
  2600   00215E  0E00               	movlw	0
  2601   002160  BFA0               	btfsc	(___xxtofl@val+1)& (0+255),7,b
  2602   002162  0EFF               	movlw	-1
  2603   002164  6FA1               	movwf	(___xxtofl@val+2)& (0+255),b
  2604   002166  6FA2               	movwf	(___xxtofl@val+3)& (0+255),b
  2605   002168  0E01               	movlw	1
  2606   00216A  EC32  F011         	call	___xxtofl
  2607   00216E  C09F  F1BF         	movff	?___xxtofl,_ComponentInitialize$2085
  2608   002172  C0A0  F1C0         	movff	?___xxtofl+1,_ComponentInitialize$2085+1
  2609   002176  C0A1  F1C1         	movff	?___xxtofl+2,_ComponentInitialize$2085+2
  2610   00217A  C0A2  F1C2         	movff	?___xxtofl+3,_ComponentInitialize$2085+3
  2611   00217E  C1B2  F19F         	movff	ComponentInitialize@component_config,Timer2Initialize@prescaler
  2612   002182  C1B3  F1A0         	movff	ComponentInitialize@component_config+1,Timer2Initialize@prescaler+1
  2613   002186  C1B4  F1A1         	movff	ComponentInitialize@component_config+2,Timer2Initialize@postscaler
  2614   00218A  C1B5  F1A2         	movff	ComponentInitialize@component_config+3,Timer2Initialize@postscaler+1
  2615   00218E  C1BF  F1A3         	movff	_ComponentInitialize$2085,Timer2Initialize@period_ms
  2616   002192  C1C0  F1A4         	movff	_ComponentInitialize$2085+1,Timer2Initialize@period_ms+1
  2617   002196  C1C1  F1A5         	movff	_ComponentInitialize$2085+2,Timer2Initialize@period_ms+2
  2618   00219A  C1C2  F1A6         	movff	_ComponentInitialize$2085+3,Timer2Initialize@period_ms+3
  2619   00219E  0101               	movlb	1	; () banked
  2620   0021A0  EE20 F002          	lfsr	2,2
  2621   0021A4  51B0               	movf	ComponentInitialize@int_config& (0+255),w,b
  2622   0021A6  26D9               	addwf	fsr2l,f,c
  2623   0021A8  51B1               	movf	(ComponentInitialize@int_config+1)& (0+255),w,b
  2624   0021AA  22DA               	addwfc	fsr2h,f,c
  2625   0021AC  50DF               	movf	indf2,w,c
  2626   0021AE  EC52  F014         	call	_Timer2Initialize
  2627   0021B2  EF05  F011         	goto	l4362
  2628   0021B6                     l4358:
  2629                           
  2630                           ; BSR set to: 1
  2631   0021B6  EE21  F0B6         	lfsr	2,ComponentInitialize@component_config+4
  2632   0021BA  CFDE F09F          	movff	postinc2,___xxtofl@val
  2633   0021BE  CFDD F0A0          	movff	postdec2,___xxtofl@val+1
  2634   0021C2  0100               	movlb	0	; () banked
  2635   0021C4  0E00               	movlw	0
  2636   0021C6  BFA0               	btfsc	(___xxtofl@val+1)& (0+255),7,b
  2637   0021C8  0EFF               	movlw	-1
  2638   0021CA  6FA1               	movwf	(___xxtofl@val+2)& (0+255),b
  2639   0021CC  6FA2               	movwf	(___xxtofl@val+3)& (0+255),b
  2640   0021CE  0E01               	movlw	1
  2641   0021D0  EC32  F011         	call	___xxtofl
  2642   0021D4  C09F  F1BF         	movff	?___xxtofl,_ComponentInitialize$2085
  2643   0021D8  C0A0  F1C0         	movff	?___xxtofl+1,_ComponentInitialize$2085+1
  2644   0021DC  C0A1  F1C1         	movff	?___xxtofl+2,_ComponentInitialize$2085+2
  2645   0021E0  C0A2  F1C2         	movff	?___xxtofl+3,_ComponentInitialize$2085+3
  2646   0021E4  C1B2  F19F         	movff	ComponentInitialize@component_config,Timer2Initialize@prescaler
  2647   0021E8  C1B3  F1A0         	movff	ComponentInitialize@component_config+1,Timer2Initialize@prescaler+1
  2648   0021EC  C1B4  F1A1         	movff	ComponentInitialize@component_config+2,Timer2Initialize@postscaler
  2649   0021F0  C1B5  F1A2         	movff	ComponentInitialize@component_config+3,Timer2Initialize@postscaler+1
  2650   0021F4  C1BF  F1A3         	movff	_ComponentInitialize$2085,Timer2Initialize@period_ms
  2651   0021F8  C1C0  F1A4         	movff	_ComponentInitialize$2085+1,Timer2Initialize@period_ms+1
  2652   0021FC  C1C1  F1A5         	movff	_ComponentInitialize$2085+2,Timer2Initialize@period_ms+2
  2653   002200  C1C2  F1A6         	movff	_ComponentInitialize$2085+3,Timer2Initialize@period_ms+3
  2654   002204  0E02               	movlw	2
  2655   002206  EC52  F014         	call	_Timer2Initialize
  2656   00220A                     l4362:
  2657                           
  2658                           ;utils/settings.c: 89:     if (components & COMPONENT_UART) {
  2659   00220A  0101               	movlb	1	; () banked
  2660   00220C  A9C3               	btfss	ComponentInitialize@components& (0+255),4,b
  2661   00220E  EF0B  F011         	goto	u5741
  2662   002212  EF0D  F011         	goto	u5740
  2663   002216                     u5741:
  2664   002216  EF31  F011         	goto	l137
  2665   00221A                     u5740:
  2666   00221A                     
  2667                           ; BSR set to: 1
  2668                           ;utils/settings.c: 90:         if(int_config) UartInitialize(int_config->uart_tx, int_co
      +                          nfig->uart_rx);
  2669   00221A  51B0               	movf	ComponentInitialize@int_config& (0+255),w,b
  2670   00221C  11B1               	iorwf	(ComponentInitialize@int_config+1)& (0+255),w,b
  2671   00221E  B4D8               	btfsc	status,2,c
  2672   002220  EF14  F011         	goto	u5751
  2673   002224  EF16  F011         	goto	u5750
  2674   002228                     u5751:
  2675   002228  EF2B  F011         	goto	l4368
  2676   00222C                     u5750:
  2677   00222C                     
  2678                           ; BSR set to: 1
  2679   00222C  EE20 F004          	lfsr	2,4
  2680   002230  51B0               	movf	ComponentInitialize@int_config& (0+255),w,b
  2681   002232  26D9               	addwf	fsr2l,f,c
  2682   002234  51B1               	movf	(ComponentInitialize@int_config+1)& (0+255),w,b
  2683   002236  22DA               	addwfc	fsr2h,f,c
  2684   002238  50DF               	movf	indf2,w,c
  2685   00223A  0100               	movlb	0	; () banked
  2686   00223C  6FA0               	movwf	UartInitialize@rx_priority& (0+255),b
  2687   00223E  0101               	movlb	1	; () banked
  2688   002240  EE20 F003          	lfsr	2,3
  2689   002244  51B0               	movf	ComponentInitialize@int_config& (0+255),w,b
  2690   002246  26D9               	addwf	fsr2l,f,c
  2691   002248  51B1               	movf	(ComponentInitialize@int_config+1)& (0+255),w,b
  2692   00224A  22DA               	addwfc	fsr2h,f,c
  2693   00224C  50DF               	movf	indf2,w,c
  2694   00224E  EC89  F017         	call	_UartInitialize
  2695   002252  EF31  F011         	goto	l137
  2696   002256                     l4368:
  2697                           
  2698                           ; BSR set to: 1
  2699   002256  0E02               	movlw	2
  2700   002258  0100               	movlb	0	; () banked
  2701   00225A  6FA0               	movwf	UartInitialize@rx_priority& (0+255),b
  2702   00225C  0E02               	movlw	2
  2703   00225E  EC89  F017         	call	_UartInitialize
  2704   002262                     l137:
  2705   002262  0012               	return		;funcret
  2706   002264                     __end_of_ComponentInitialize:
  2707                           	callstack 0
  2708                           
  2709 ;; *************** function _UartInitialize *****************
  2710 ;; Defined at:
  2711 ;;		line 29 in file "utils/uart.c"
  2712 ;; Parameters:    Size  Location     Type
  2713 ;;  tx_priority     1    wreg     enum E2584
  2714 ;;  rx_priority     1   32[BANK0 ] enum E2584
  2715 ;; Auto vars:     Size  Location     Type
  2716 ;;  tx_priority     1   33[BANK0 ] enum E2584
  2717 ;; Return value:  Size  Location     Type
  2718 ;;                  1    wreg      void 
  2719 ;; Registers used:
  2720 ;;		wreg, status,2, status,0, cstack
  2721 ;; Tracked objects:
  2722 ;;		On entry : 0/0
  2723 ;;		On exit  : 0/0
  2724 ;;		Unchanged: 0/0
  2725 ;; Data sizes:     COMRAM   BANK0   BANK1   BANK2   BANK3   BANK4   BANK5
  2726 ;;      Params:         0       1       0       0       0       0       0
  2727 ;;      Locals:         0       1       0       0       0       0       0
  2728 ;;      Temps:          0       0       0       0       0       0       0
  2729 ;;      Totals:         0       2       0       0       0       0       0
  2730 ;;Total ram usage:        2 bytes
  2731 ;; Hardware stack levels used: 1
  2732 ;; Hardware stack levels required when called: 5
  2733 ;; This function calls:
  2734 ;;		_RxEnableInterrupt
  2735 ;;		_SetBaudRate
  2736 ;;		_TxEnableInterrupt
  2737 ;; This function is called by:
  2738 ;;		_ComponentInitialize
  2739 ;; This function uses a non-reentrant model
  2740 ;;
  2741                           
  2742                           	psect	text5
  2743   002F12                     __ptext5:
  2744                           	callstack 0
  2745   002F12                     _UartInitialize:
  2746                           	callstack 23
  2747                           
  2748                           ;incstack = 0
  2749                           ;UartInitialize@tx_priority stored from wreg
  2750   002F12  0100               	movlb	0	; () banked
  2751   002F14  6FA1               	movwf	UartInitialize@tx_priority& (0+255),b
  2752   002F16                     
  2753                           ;utils/uart.c: 30:     TRISCbits.RC6 = 1;
  2754   002F16  8C94               	bsf	148,6,c	;volatile
  2755                           
  2756                           ;utils/uart.c: 31:     TRISCbits.RC7 = 1;
  2757   002F18  8E94               	bsf	148,7,c	;volatile
  2758   002F1A                     
  2759                           ;utils/uart.c: 33:     SetBaudRate();
  2760   002F1A  ECA8  F018         	call	_SetBaudRate	;wreg free
  2761   002F1E                     
  2762                           ;utils/uart.c: 36:     RCSTAbits.SPEN = 1;
  2763   002F1E  8EAB               	bsf	171,7,c	;volatile
  2764   002F20                     
  2765                           ;utils/uart.c: 37:     TXSTAbits.TXEN = 1;
  2766   002F20  8AAC               	bsf	172,5,c	;volatile
  2767   002F22                     
  2768                           ;utils/uart.c: 39:     PIR1bits.TXIF = 1;
  2769   002F22  889E               	bsf	158,4,c	;volatile
  2770   002F24                     
  2771                           ;utils/uart.c: 40:     PIR1bits.RCIF = 0;
  2772   002F24  9A9E               	bcf	158,5,c	;volatile
  2773   002F26                     
  2774                           ;utils/uart.c: 41:     RCSTAbits.CREN = 1;
  2775   002F26  88AB               	bsf	171,4,c	;volatile
  2776   002F28                     
  2777                           ;utils/uart.c: 44:     if(tx_priority != INTERRUPT_NONE){
  2778   002F28  0E02               	movlw	2
  2779   002F2A  0100               	movlb	0	; () banked
  2780   002F2C  19A1               	xorwf	UartInitialize@tx_priority& (0+255),w,b
  2781   002F2E  B4D8               	btfsc	status,2,c
  2782   002F30  EF9C  F017         	goto	u3571
  2783   002F34  EF9E  F017         	goto	u3570
  2784   002F38                     u3571:
  2785   002F38  EFA1  F017         	goto	l3130
  2786   002F3C                     u3570:
  2787   002F3C                     
  2788                           ; BSR set to: 0
  2789                           ;utils/uart.c: 45:         TxEnableInterrupt(tx_priority);
  2790   002F3C  51A1               	movf	UartInitialize@tx_priority& (0+255),w,b
  2791   002F3E  EC77  F018         	call	_TxEnableInterrupt
  2792   002F42                     l3130:
  2793                           
  2794                           ;utils/uart.c: 47:     if(rx_priority != INTERRUPT_NONE){
  2795   002F42  0E02               	movlw	2
  2796   002F44  0100               	movlb	0	; () banked
  2797   002F46  19A0               	xorwf	UartInitialize@rx_priority& (0+255),w,b
  2798   002F48  B4D8               	btfsc	status,2,c
  2799   002F4A  EFA9  F017         	goto	u3581
  2800   002F4E  EFAB  F017         	goto	u3580
  2801   002F52                     u3581:
  2802   002F52  EFAE  F017         	goto	l206
  2803   002F56                     u3580:
  2804   002F56                     
  2805                           ; BSR set to: 0
  2806                           ;utils/uart.c: 48:         RxEnableInterrupt(rx_priority);
  2807   002F56  51A0               	movf	UartInitialize@rx_priority& (0+255),w,b
  2808   002F58  EC81  F018         	call	_RxEnableInterrupt
  2809   002F5C                     l206:
  2810   002F5C  0012               	return		;funcret
  2811   002F5E                     __end_of_UartInitialize:
  2812                           	callstack 0
  2813                           
  2814 ;; *************** function _TxEnableInterrupt *****************
  2815 ;; Defined at:
  2816 ;;		line 19 in file "utils/uart.c"
  2817 ;; Parameters:    Size  Location     Type
  2818 ;;  priority        1    wreg     enum E2584
  2819 ;; Auto vars:     Size  Location     Type
  2820 ;;  priority        1   31[BANK0 ] enum E2584
  2821 ;; Return value:  Size  Location     Type
  2822 ;;                  1    wreg      void 
  2823 ;; Registers used:
  2824 ;;		wreg
  2825 ;; Tracked objects:
  2826 ;;		On entry : 0/0
  2827 ;;		On exit  : 0/0
  2828 ;;		Unchanged: 0/0
  2829 ;; Data sizes:     COMRAM   BANK0   BANK1   BANK2   BANK3   BANK4   BANK5
  2830 ;;      Params:         0       0       0       0       0       0       0
  2831 ;;      Locals:         0       1       0       0       0       0       0
  2832 ;;      Temps:          0       0       0       0       0       0       0
  2833 ;;      Totals:         0       1       0       0       0       0       0
  2834 ;;Total ram usage:        1 bytes
  2835 ;; Hardware stack levels used: 1
  2836 ;; Hardware stack levels required when called: 4
  2837 ;; This function calls:
  2838 ;;		Nothing
  2839 ;; This function is called by:
  2840 ;;		_UartInitialize
  2841 ;; This function uses a non-reentrant model
  2842 ;;
  2843                           
  2844                           	psect	text6
  2845   0030EE                     __ptext6:
  2846                           	callstack 0
  2847   0030EE                     _TxEnableInterrupt:
  2848                           	callstack 23
  2849                           
  2850                           ;incstack = 0
  2851                           ;TxEnableInterrupt@priority stored from wreg
  2852   0030EE  0100               	movlb	0	; () banked
  2853   0030F0  6F9F               	movwf	TxEnableInterrupt@priority& (0+255),b
  2854   0030F2                     
  2855                           ;utils/uart.c: 20:     IPR1bits.TXIP = priority;
  2856   0030F2  0100               	movlb	0	; () banked
  2857   0030F4  B19F               	btfsc	TxEnableInterrupt@priority& (0+255),0,b
  2858   0030F6  D002               	bra	u3535
  2859   0030F8  989F               	bcf	159,4,c	;volatile
  2860   0030FA  D001               	bra	u3536
  2861   0030FC                     u3535:
  2862   0030FC  889F               	bsf	159,4,c	;volatile
  2863   0030FE                     u3536:
  2864   0030FE                     
  2865                           ;utils/uart.c: 21:     PIE1bits.TXIE = 1;
  2866   0030FE  889D               	bsf	157,4,c	;volatile
  2867   003100  0012               	return		;funcret
  2868   003102                     __end_of_TxEnableInterrupt:
  2869                           	callstack 0
  2870                           
  2871 ;; *************** function _SetBaudRate *****************
  2872 ;; Defined at:
  2873 ;;		line 11 in file "utils/uart.c"
  2874 ;; Parameters:    Size  Location     Type
  2875 ;;		None
  2876 ;; Auto vars:     Size  Location     Type
  2877 ;;		None
  2878 ;; Return value:  Size  Location     Type
  2879 ;;                  1    wreg      void 
  2880 ;; Registers used:
  2881 ;;		wreg, status,2
  2882 ;; Tracked objects:
  2883 ;;		On entry : 0/0
  2884 ;;		On exit  : 0/0
  2885 ;;		Unchanged: 0/0
  2886 ;; Data sizes:     COMRAM   BANK0   BANK1   BANK2   BANK3   BANK4   BANK5
  2887 ;;      Params:         0       0       0       0       0       0       0
  2888 ;;      Locals:         0       0       0       0       0       0       0
  2889 ;;      Temps:          0       0       0       0       0       0       0
  2890 ;;      Totals:         0       0       0       0       0       0       0
  2891 ;;Total ram usage:        0 bytes
  2892 ;; Hardware stack levels used: 1
  2893 ;; Hardware stack levels required when called: 4
  2894 ;; This function calls:
  2895 ;;		Nothing
  2896 ;; This function is called by:
  2897 ;;		_UartInitialize
  2898 ;; This function uses a non-reentrant model
  2899 ;;
  2900                           
  2901                           	psect	text7
  2902   003150                     __ptext7:
  2903                           	callstack 0
  2904   003150                     _SetBaudRate:
  2905                           	callstack 23
  2906   003150                     
  2907                           ;utils/uart.c: 13:     TXSTAbits.SYNC = 0;
  2908   003150  98AC               	bcf	172,4,c	;volatile
  2909                           
  2910                           ;utils/uart.c: 14:     BAUDCONbits.BRG16 = 0;
  2911   003152  96B8               	bcf	184,3,c	;volatile
  2912                           
  2913                           ;utils/uart.c: 15:     TXSTAbits.BRGH = 0;
  2914   003154  94AC               	bcf	172,2,c	;volatile
  2915   003156                     
  2916                           ;utils/uart.c: 16:     SPBRG = 51;
  2917   003156  0E33               	movlw	51
  2918   003158  6EAF               	movwf	175,c	;volatile
  2919   00315A  0012               	return		;funcret
  2920   00315C                     __end_of_SetBaudRate:
  2921                           	callstack 0
  2922                           
  2923 ;; *************** function _RxEnableInterrupt *****************
  2924 ;; Defined at:
  2925 ;;		line 24 in file "utils/uart.c"
  2926 ;; Parameters:    Size  Location     Type
  2927 ;;  priority        1    wreg     enum E2584
  2928 ;; Auto vars:     Size  Location     Type
  2929 ;;  priority        1   31[BANK0 ] enum E2584
  2930 ;; Return value:  Size  Location     Type
  2931 ;;                  1    wreg      void 
  2932 ;; Registers used:
  2933 ;;		wreg
  2934 ;; Tracked objects:
  2935 ;;		On entry : 0/0
  2936 ;;		On exit  : 0/0
  2937 ;;		Unchanged: 0/0
  2938 ;; Data sizes:     COMRAM   BANK0   BANK1   BANK2   BANK3   BANK4   BANK5
  2939 ;;      Params:         0       0       0       0       0       0       0
  2940 ;;      Locals:         0       1       0       0       0       0       0
  2941 ;;      Temps:          0       0       0       0       0       0       0
  2942 ;;      Totals:         0       1       0       0       0       0       0
  2943 ;;Total ram usage:        1 bytes
  2944 ;; Hardware stack levels used: 1
  2945 ;; Hardware stack levels required when called: 4
  2946 ;; This function calls:
  2947 ;;		Nothing
  2948 ;; This function is called by:
  2949 ;;		_UartInitialize
  2950 ;; This function uses a non-reentrant model
  2951 ;;
  2952                           
  2953                           	psect	text8
  2954   003102                     __ptext8:
  2955                           	callstack 0
  2956   003102                     _RxEnableInterrupt:
  2957                           	callstack 23
  2958                           
  2959                           ;incstack = 0
  2960                           ;RxEnableInterrupt@priority stored from wreg
  2961   003102  0100               	movlb	0	; () banked
  2962   003104  6F9F               	movwf	RxEnableInterrupt@priority& (0+255),b
  2963   003106                     
  2964                           ;utils/uart.c: 25:     IPR1bits.RCIP = priority;
  2965   003106  0100               	movlb	0	; () banked
  2966   003108  B19F               	btfsc	RxEnableInterrupt@priority& (0+255),0,b
  2967   00310A  D002               	bra	u3545
  2968   00310C  9A9F               	bcf	159,5,c	;volatile
  2969   00310E  D001               	bra	u3546
  2970   003110                     u3545:
  2971   003110  8A9F               	bsf	159,5,c	;volatile
  2972   003112                     u3546:
  2973   003112                     
  2974                           ;utils/uart.c: 26:     PIE1bits.RCIE = 1;
  2975   003112  8A9D               	bsf	157,5,c	;volatile
  2976   003114  0012               	return		;funcret
  2977   003116                     __end_of_RxEnableInterrupt:
  2978                           	callstack 0
  2979                           
  2980 ;; *************** function _PWMInitialize *****************
  2981 ;; Defined at:
  2982 ;;		line 8 in file "utils/ccp.c"
  2983 ;; Parameters:    Size  Location     Type
  2984 ;;  period_ms       4   44[BANK1 ] void 
  2985 ;; Auto vars:     Size  Location     Type
  2986 ;;		None
  2987 ;; Return value:  Size  Location     Type
  2988 ;;                  1    wreg      void 
  2989 ;; Registers used:
  2990 ;;		wreg, status,2, status,0, prodl, prodh, cstack
  2991 ;; Tracked objects:
  2992 ;;		On entry : 0/0
  2993 ;;		On exit  : 0/0
  2994 ;;		Unchanged: 0/0
  2995 ;; Data sizes:     COMRAM   BANK0   BANK1   BANK2   BANK3   BANK4   BANK5
  2996 ;;      Params:         0       0       4       0       0       0       0
  2997 ;;      Locals:         0       0       0       0       0       0       0
  2998 ;;      Temps:          0       0       0       0       0       0       0
  2999 ;;      Totals:         0       0       4       0       0       0       0
  3000 ;;Total ram usage:        4 bytes
  3001 ;; Hardware stack levels used: 1
  3002 ;; Hardware stack levels required when called: 6
  3003 ;; This function calls:
  3004 ;;		_PWMSetPeriod
  3005 ;;		_Timer2Initialize
  3006 ;; This function is called by:
  3007 ;;		_ComponentInitialize
  3008 ;; This function uses a non-reentrant model
  3009 ;;
  3010                           
  3011                           	psect	text9
  3012   002FA8                     __ptext9:
  3013                           	callstack 0
  3014   002FA8                     _PWMInitialize:
  3015                           	callstack 22
  3016   002FA8                     
  3017                           ;utils/ccp.c: 9:     TRISCbits.TRISC2 = 0;
  3018   002FA8  9494               	bcf	148,2,c	;volatile
  3019   002FAA                     
  3020                           ;utils/ccp.c: 10:     CCP1CONbits.CCP1M = 0b1100;
  3021   002FAA  50BD               	movf	189,w,c	;volatile
  3022   002FAC  0BF0               	andlw	-16
  3023   002FAE  090C               	iorlw	12
  3024   002FB0  6EBD               	movwf	189,c	;volatile
  3025   002FB2                     
  3026                           ;utils/ccp.c: 14:         Timer2Initialize(INTERRUPT_NONE, 16, 16, 0);
  3027   002FB2  0E00               	movlw	0
  3028   002FB4  0101               	movlb	1	; () banked
  3029   002FB6  6FA0               	movwf	(Timer2Initialize@prescaler+1)& (0+255),b
  3030   002FB8  0E10               	movlw	16
  3031   002FBA  6F9F               	movwf	Timer2Initialize@prescaler& (0+255),b
  3032   002FBC  0E00               	movlw	0
  3033   002FBE  6FA2               	movwf	(Timer2Initialize@postscaler+1)& (0+255),b
  3034   002FC0  0E10               	movlw	16
  3035   002FC2  6FA1               	movwf	Timer2Initialize@postscaler& (0+255),b
  3036   002FC4  0E00               	movlw	0
  3037   002FC6  6FA3               	movwf	Timer2Initialize@period_ms& (0+255),b
  3038   002FC8  0E00               	movlw	0
  3039   002FCA  6FA4               	movwf	(Timer2Initialize@period_ms+1)& (0+255),b
  3040   002FCC  0E00               	movlw	0
  3041   002FCE  6FA5               	movwf	(Timer2Initialize@period_ms+2)& (0+255),b
  3042   002FD0  0E00               	movlw	0
  3043   002FD2  6FA6               	movwf	(Timer2Initialize@period_ms+3)& (0+255),b
  3044   002FD4  0E02               	movlw	2
  3045   002FD6  EC52  F014         	call	_Timer2Initialize
  3046   002FDA                     
  3047                           ;utils/ccp.c: 16:     PWMSetPeriod(period_ms);
  3048   002FDA  C1AC  F19F         	movff	PWMInitialize@period_ms,PWMSetPeriod@period_ms
  3049   002FDE  C1AD  F1A0         	movff	PWMInitialize@period_ms+1,PWMSetPeriod@period_ms+1
  3050   002FE2  C1AE  F1A1         	movff	PWMInitialize@period_ms+2,PWMSetPeriod@period_ms+2
  3051   002FE6  C1AF  F1A2         	movff	PWMInitialize@period_ms+3,PWMSetPeriod@period_ms+3
  3052   002FEA  EC85  F016         	call	_PWMSetPeriod	;wreg free
  3053   002FEE  0012               	return		;funcret
  3054   002FF0                     __end_of_PWMInitialize:
  3055                           	callstack 0
  3056                           
  3057 ;; *************** function _Timer2Initialize *****************
  3058 ;; Defined at:
  3059 ;;		line 7 in file "utils/timer.c"
  3060 ;; Parameters:    Size  Location     Type
  3061 ;;  priority        1    wreg     enum E2584
  3062 ;;  prescaler       2   31[BANK1 ] int 
  3063 ;;  postscaler      2   33[BANK1 ] int 
  3064 ;;  period_ms       4   35[BANK1 ] int 
  3065 ;; Auto vars:     Size  Location     Type
  3066 ;;  priority        1   43[BANK1 ] enum E2584
  3067 ;; Return value:  Size  Location     Type
  3068 ;;                  1    wreg      void 
  3069 ;; Registers used:
  3070 ;;		wreg, status,2, status,0, prodl, prodh, cstack
  3071 ;; Tracked objects:
  3072 ;;		On entry : 0/0
  3073 ;;		On exit  : 0/0
  3074 ;;		Unchanged: 0/0
  3075 ;; Data sizes:     COMRAM   BANK0   BANK1   BANK2   BANK3   BANK4   BANK5
  3076 ;;      Params:         0       0       8       0       0       0       0
  3077 ;;      Locals:         0       0       1       0       0       0       0
  3078 ;;      Temps:          0       0       4       0       0       0       0
  3079 ;;      Totals:         0       0      13       0       0       0       0
  3080 ;;Total ram usage:       13 bytes
  3081 ;; Hardware stack levels used: 1
  3082 ;; Hardware stack levels required when called: 5
  3083 ;; This function calls:
  3084 ;;		___fladd
  3085 ;;		___fldiv
  3086 ;;		___flmul
  3087 ;;		___fltol
  3088 ;;		___xxtofl
  3089 ;; This function is called by:
  3090 ;;		_PWMInitialize
  3091 ;;		_ComponentInitialize
  3092 ;; This function uses a non-reentrant model
  3093 ;;
  3094                           
  3095                           	psect	text10
  3096   0028A4                     __ptext10:
  3097                           	callstack 0
  3098   0028A4                     _Timer2Initialize:
  3099                           	callstack 23
  3100                           
  3101                           ;incstack = 0
  3102                           ;Timer2Initialize@priority stored from wreg
  3103   0028A4  0101               	movlb	1	; () banked
  3104   0028A6  6FAB               	movwf	Timer2Initialize@priority& (0+255),b
  3105   0028A8                     
  3106                           ;utils/timer.c: 8:     Timer2Prescaler = prescaler;
  3107   0028A8  C19F  F1D3         	movff	Timer2Initialize@prescaler,_Timer2Prescaler
  3108   0028AC  C1A0  F1D4         	movff	Timer2Initialize@prescaler+1,_Timer2Prescaler+1
  3109                           
  3110                           ;utils/timer.c: 9:     Timer2Postscaler = postscaler;
  3111   0028B0  C1A1  F1D1         	movff	Timer2Initialize@postscaler,_Timer2Postscaler
  3112   0028B4  C1A2  F1D2         	movff	Timer2Initialize@postscaler+1,_Timer2Postscaler+1
  3113   0028B8                     
  3114                           ;utils/timer.c: 10:     if(Timer2Prescaler == 4){
  3115   0028B8  0E04               	movlw	4
  3116   0028BA  0101               	movlb	1	; () banked
  3117   0028BC  19D3               	xorwf	_Timer2Prescaler& (0+255),w,b
  3118   0028BE  11D4               	iorwf	(_Timer2Prescaler+1)& (0+255),w,b
  3119   0028C0  A4D8               	btfss	status,2,c
  3120   0028C2  EF65  F014         	goto	u5601
  3121   0028C6  EF67  F014         	goto	u5600
  3122   0028CA                     u5601:
  3123   0028CA  EF6D  F014         	goto	l4282
  3124   0028CE                     u5600:
  3125   0028CE                     
  3126                           ; BSR set to: 1
  3127                           ;utils/timer.c: 11:         T2CONbits.T2CKPS = 0b01;
  3128   0028CE  50CA               	movf	202,w,c	;volatile
  3129   0028D0  0BFC               	andlw	-4
  3130   0028D2  0901               	iorlw	1
  3131   0028D4  6ECA               	movwf	202,c	;volatile
  3132                           
  3133                           ;utils/timer.c: 12:     } else {
  3134   0028D6  EF71  F014         	goto	l4284
  3135   0028DA                     l4282:
  3136                           
  3137                           ; BSR set to: 1
  3138                           ;utils/timer.c: 13:         T2CONbits.T2CKPS = 0b10;
  3139   0028DA  50CA               	movf	202,w,c	;volatile
  3140   0028DC  0BFC               	andlw	-4
  3141   0028DE  0902               	iorlw	2
  3142   0028E0  6ECA               	movwf	202,c	;volatile
  3143   0028E2                     l4284:
  3144                           
  3145                           ; BSR set to: 1
  3146                           ;utils/timer.c: 16:     T2CONbits.T2OUTPS = Timer2Postscaler - 1;
  3147   0028E2  C1D1  F1A7         	movff	_Timer2Postscaler,??_Timer2Initialize
  3148   0028E6  0EFF               	movlw	255
  3149   0028E8  27A7               	addwf	??_Timer2Initialize& (0+255),f,b
  3150   0028EA  47A7               	rlncf	??_Timer2Initialize& (0+255),f,b
  3151   0028EC  47A7               	rlncf	??_Timer2Initialize& (0+255),f,b
  3152   0028EE  47A7               	rlncf	??_Timer2Initialize& (0+255),f,b
  3153   0028F0  50CA               	movf	202,w,c	;volatile
  3154   0028F2  19A7               	xorwf	??_Timer2Initialize& (0+255),w,b
  3155   0028F4  0B87               	andlw	-121
  3156   0028F6  19A7               	xorwf	??_Timer2Initialize& (0+255),w,b
  3157   0028F8  6ECA               	movwf	202,c	;volatile
  3158   0028FA                     
  3159                           ; BSR set to: 1
  3160                           ;utils/timer.c: 18:     if(priority != INTERRUPT_NONE){
  3161   0028FA  0E02               	movlw	2
  3162   0028FC  19AB               	xorwf	Timer2Initialize@priority& (0+255),w,b
  3163   0028FE  B4D8               	btfsc	status,2,c
  3164   002900  EF84  F014         	goto	u5611
  3165   002904  EF86  F014         	goto	u5610
  3166   002908                     u5611:
  3167   002908  EF8C  F014         	goto	l4290
  3168   00290C                     u5610:
  3169   00290C                     
  3170                           ; BSR set to: 1
  3171                           ;utils/timer.c: 19:         PIE1bits.TMR2IE = 1;
  3172   00290C  829D               	bsf	157,1,c	;volatile
  3173                           
  3174                           ;utils/timer.c: 20:         IPR1bits.TMR2IP = priority;
  3175   00290E  B1AB               	btfsc	Timer2Initialize@priority& (0+255),0,b
  3176   002910  D002               	bra	u5625
  3177   002912  929F               	bcf	159,1,c	;volatile
  3178   002914  D001               	bra	u5626
  3179   002916                     u5625:
  3180   002916  829F               	bsf	159,1,c	;volatile
  3181   002918                     u5626:
  3182   002918                     l4290:
  3183                           
  3184                           ;utils/timer.c: 23:     PR2 = (period_ms * (4000000 / 1000)) / (4 * Timer2Prescaler * Ti
      +                          mer2Postscaler) - 1;
  3185   002918  0E00               	movlw	0
  3186   00291A  0100               	movlb	0	; () banked
  3187   00291C  6FC8               	movwf	___fladd@a& (0+255),b
  3188   00291E  0E00               	movlw	0
  3189   002920  6FC9               	movwf	(___fladd@a+1)& (0+255),b
  3190   002922  0E80               	movlw	128
  3191   002924  6FCA               	movwf	(___fladd@a+2)& (0+255),b
  3192   002926  0EBF               	movlw	191
  3193   002928  6FCB               	movwf	(___fladd@a+3)& (0+255),b
  3194   00292A  C1D3  F1A7         	movff	_Timer2Prescaler,??_Timer2Initialize
  3195   00292E  C1D4  F1A8         	movff	_Timer2Prescaler+1,??_Timer2Initialize+1
  3196   002932  0101               	movlb	1	; () banked
  3197   002934  90D8               	bcf	status,0,c
  3198   002936  37A7               	rlcf	??_Timer2Initialize& (0+255),f,b
  3199   002938  37A8               	rlcf	(??_Timer2Initialize+1)& (0+255),f,b
  3200   00293A  90D8               	bcf	status,0,c
  3201   00293C  37A7               	rlcf	??_Timer2Initialize& (0+255),f,b
  3202   00293E  37A8               	rlcf	(??_Timer2Initialize+1)& (0+255),f,b
  3203   002940  51D1               	movf	_Timer2Postscaler& (0+255),w,b
  3204   002942  03A7               	mulwf	??_Timer2Initialize& (0+255),b
  3205   002944  CFF3 F1A9          	movff	prodl,??_Timer2Initialize+2
  3206   002948  CFF4 F1AA          	movff	prodh,??_Timer2Initialize+3
  3207   00294C  03A8               	mulwf	(??_Timer2Initialize+1)& (0+255),b
  3208   00294E  50F3               	movf	prodl,w,c
  3209   002950  27AA               	addwf	(??_Timer2Initialize+3)& (0+255),f,b
  3210   002952  51D2               	movf	(_Timer2Postscaler+1)& (0+255),w,b
  3211   002954  03A7               	mulwf	??_Timer2Initialize& (0+255),b
  3212   002956  50F3               	movf	prodl,w,c
  3213   002958  27AA               	addwf	(??_Timer2Initialize+3)& (0+255),f,b
  3214   00295A  C1A9  F09F         	movff	??_Timer2Initialize+2,___xxtofl@val
  3215   00295E  C1AA  F0A0         	movff	??_Timer2Initialize+3,___xxtofl@val+1
  3216   002962  0100               	movlb	0	; () banked
  3217   002964  0E00               	movlw	0
  3218   002966  BFA0               	btfsc	(___xxtofl@val+1)& (0+255),7,b
  3219   002968  0EFF               	movlw	-1
  3220   00296A  6FA1               	movwf	(___xxtofl@val+2)& (0+255),b
  3221   00296C  6FA2               	movwf	(___xxtofl@val+3)& (0+255),b
  3222   00296E  0E01               	movlw	1
  3223   002970  EC32  F011         	call	___xxtofl
  3224   002974  C09F  F0BC         	movff	?___xxtofl,___fldiv@a
  3225   002978  C0A0  F0BD         	movff	?___xxtofl+1,___fldiv@a+1
  3226   00297C  C0A1  F0BE         	movff	?___xxtofl+2,___fldiv@a+2
  3227   002980  C0A2  F0BF         	movff	?___xxtofl+3,___fldiv@a+3
  3228   002984  0E00               	movlw	0
  3229   002986  0100               	movlb	0	; () banked
  3230   002988  6FA3               	movwf	___flmul@a& (0+255),b
  3231   00298A  0E00               	movlw	0
  3232   00298C  6FA4               	movwf	(___flmul@a+1)& (0+255),b
  3233   00298E  0E7A               	movlw	122
  3234   002990  6FA5               	movwf	(___flmul@a+2)& (0+255),b
  3235   002992  0E45               	movlw	69
  3236   002994  6FA6               	movwf	(___flmul@a+3)& (0+255),b
  3237   002996  C1A3  F09F         	movff	Timer2Initialize@period_ms,___flmul@b
  3238   00299A  C1A4  F0A0         	movff	Timer2Initialize@period_ms+1,___flmul@b+1
  3239   00299E  C1A5  F0A1         	movff	Timer2Initialize@period_ms+2,___flmul@b+2
  3240   0029A2  C1A6  F0A2         	movff	Timer2Initialize@period_ms+3,___flmul@b+3
  3241   0029A6  EC08  F008         	call	___flmul	;wreg free
  3242   0029AA  C09F  F0B8         	movff	?___flmul,___fldiv@b
  3243   0029AE  C0A0  F0B9         	movff	?___flmul+1,___fldiv@b+1
  3244   0029B2  C0A1  F0BA         	movff	?___flmul+2,___fldiv@b+2
  3245   0029B6  C0A2  F0BB         	movff	?___flmul+3,___fldiv@b+3
  3246   0029BA  EC2F  F00C         	call	___fldiv	;wreg free
  3247   0029BE  C0B8  F0C4         	movff	?___fldiv,___fladd@b
  3248   0029C2  C0B9  F0C5         	movff	?___fldiv+1,___fladd@b+1
  3249   0029C6  C0BA  F0C6         	movff	?___fldiv+2,___fladd@b+2
  3250   0029CA  C0BB  F0C7         	movff	?___fldiv+3,___fladd@b+3
  3251   0029CE  EC03  F003         	call	___fladd	;wreg free
  3252   0029D2  C0C4  F195         	movff	?___fladd,___fltol@f1
  3253   0029D6  C0C5  F196         	movff	?___fladd+1,___fltol@f1+1
  3254   0029DA  C0C6  F197         	movff	?___fladd+2,___fltol@f1+2
  3255   0029DE  C0C7  F198         	movff	?___fladd+3,___fltol@f1+3
  3256   0029E2  EC7E  F015         	call	___fltol	;wreg free
  3257   0029E6  0101               	movlb	1	; () banked
  3258   0029E8  5195               	movf	?___fltol& (0+255),w,b
  3259   0029EA  6ECB               	movwf	203,c	;volatile
  3260   0029EC                     
  3261                           ; BSR set to: 1
  3262                           ;utils/timer.c: 24:     T2CONbits.TMR2ON = 1;
  3263   0029EC  84CA               	bsf	202,2,c	;volatile
  3264   0029EE                     
  3265                           ; BSR set to: 1
  3266   0029EE  0012               	return		;funcret
  3267   0029F0                     __end_of_Timer2Initialize:
  3268                           	callstack 0
  3269                           
  3270 ;; *************** function _PWMSetPeriod *****************
  3271 ;; Defined at:
  3272 ;;		line 19 in file "utils/ccp.c"
  3273 ;; Parameters:    Size  Location     Type
  3274 ;;  period_ms       4   31[BANK1 ] void 
  3275 ;; Auto vars:     Size  Location     Type
  3276 ;;  prescaler       2   37[BANK1 ] int 
  3277 ;; Return value:  Size  Location     Type
  3278 ;;                  1    wreg      void 
  3279 ;; Registers used:
  3280 ;;		wreg, status,2, status,0, prodl, prodh, cstack
  3281 ;; Tracked objects:
  3282 ;;		On entry : 0/0
  3283 ;;		On exit  : 0/0
  3284 ;;		Unchanged: 0/0
  3285 ;; Data sizes:     COMRAM   BANK0   BANK1   BANK2   BANK3   BANK4   BANK5
  3286 ;;      Params:         0       0       4       0       0       0       0
  3287 ;;      Locals:         0       0       2       0       0       0       0
  3288 ;;      Temps:          0       0       2       0       0       0       0
  3289 ;;      Totals:         0       0       8       0       0       0       0
  3290 ;;Total ram usage:        8 bytes
  3291 ;; Hardware stack levels used: 1
  3292 ;; Hardware stack levels required when called: 5
  3293 ;; This function calls:
  3294 ;;		_Timer2GetPrescaler
  3295 ;;		___fladd
  3296 ;;		___fldiv
  3297 ;;		___flmul
  3298 ;;		___fltol
  3299 ;;		___xxtofl
  3300 ;; This function is called by:
  3301 ;;		_PWMInitialize
  3302 ;; This function uses a non-reentrant model
  3303 ;;
  3304                           
  3305                           	psect	text11
  3306   002D0A                     __ptext11:
  3307                           	callstack 0
  3308   002D0A                     _PWMSetPeriod:
  3309                           	callstack 22
  3310   002D0A                     
  3311                           ;utils/ccp.c: 25:     int prescaler = Timer2GetPrescaler();
  3312   002D0A  ECAE  F018         	call	_Timer2GetPrescaler	;wreg free
  3313   002D0E  C09F  F1A5         	movff	?_Timer2GetPrescaler,PWMSetPeriod@prescaler
  3314   002D12  C0A0  F1A6         	movff	?_Timer2GetPrescaler+1,PWMSetPeriod@prescaler+1
  3315   002D16                     
  3316                           ;utils/ccp.c: 26:     PR2 = (period_ms * (4000000 / 1000)) / (4 * prescaler) - 1;
  3317   002D16  0E00               	movlw	0
  3318   002D18  0100               	movlb	0	; () banked
  3319   002D1A  6FC8               	movwf	___fladd@a& (0+255),b
  3320   002D1C  0E00               	movlw	0
  3321   002D1E  6FC9               	movwf	(___fladd@a+1)& (0+255),b
  3322   002D20  0E80               	movlw	128
  3323   002D22  6FCA               	movwf	(___fladd@a+2)& (0+255),b
  3324   002D24  0EBF               	movlw	191
  3325   002D26  6FCB               	movwf	(___fladd@a+3)& (0+255),b
  3326   002D28  C1A5  F1A3         	movff	PWMSetPeriod@prescaler,??_PWMSetPeriod
  3327   002D2C  C1A6  F1A4         	movff	PWMSetPeriod@prescaler+1,??_PWMSetPeriod+1
  3328   002D30  0101               	movlb	1	; () banked
  3329   002D32  90D8               	bcf	status,0,c
  3330   002D34  37A3               	rlcf	??_PWMSetPeriod& (0+255),f,b
  3331   002D36  37A4               	rlcf	(??_PWMSetPeriod+1)& (0+255),f,b
  3332   002D38  90D8               	bcf	status,0,c
  3333   002D3A  37A3               	rlcf	??_PWMSetPeriod& (0+255),f,b
  3334   002D3C  37A4               	rlcf	(??_PWMSetPeriod+1)& (0+255),f,b
  3335   002D3E  C1A3  F09F         	movff	??_PWMSetPeriod,___xxtofl@val
  3336   002D42  C1A4  F0A0         	movff	??_PWMSetPeriod+1,___xxtofl@val+1
  3337   002D46  0100               	movlb	0	; () banked
  3338   002D48  0E00               	movlw	0
  3339   002D4A  BFA0               	btfsc	(___xxtofl@val+1)& (0+255),7,b
  3340   002D4C  0EFF               	movlw	-1
  3341   002D4E  6FA1               	movwf	(___xxtofl@val+2)& (0+255),b
  3342   002D50  6FA2               	movwf	(___xxtofl@val+3)& (0+255),b
  3343   002D52  0E01               	movlw	1
  3344   002D54  EC32  F011         	call	___xxtofl
  3345   002D58  C09F  F0BC         	movff	?___xxtofl,___fldiv@a
  3346   002D5C  C0A0  F0BD         	movff	?___xxtofl+1,___fldiv@a+1
  3347   002D60  C0A1  F0BE         	movff	?___xxtofl+2,___fldiv@a+2
  3348   002D64  C0A2  F0BF         	movff	?___xxtofl+3,___fldiv@a+3
  3349   002D68  0E00               	movlw	0
  3350   002D6A  0100               	movlb	0	; () banked
  3351   002D6C  6FA3               	movwf	___flmul@a& (0+255),b
  3352   002D6E  0E00               	movlw	0
  3353   002D70  6FA4               	movwf	(___flmul@a+1)& (0+255),b
  3354   002D72  0E7A               	movlw	122
  3355   002D74  6FA5               	movwf	(___flmul@a+2)& (0+255),b
  3356   002D76  0E45               	movlw	69
  3357   002D78  6FA6               	movwf	(___flmul@a+3)& (0+255),b
  3358   002D7A  C19F  F09F         	movff	PWMSetPeriod@period_ms,___flmul@b
  3359   002D7E  C1A0  F0A0         	movff	PWMSetPeriod@period_ms+1,___flmul@b+1
  3360   002D82  C1A1  F0A1         	movff	PWMSetPeriod@period_ms+2,___flmul@b+2
  3361   002D86  C1A2  F0A2         	movff	PWMSetPeriod@period_ms+3,___flmul@b+3
  3362   002D8A  EC08  F008         	call	___flmul	;wreg free
  3363   002D8E  C09F  F0B8         	movff	?___flmul,___fldiv@b
  3364   002D92  C0A0  F0B9         	movff	?___flmul+1,___fldiv@b+1
  3365   002D96  C0A1  F0BA         	movff	?___flmul+2,___fldiv@b+2
  3366   002D9A  C0A2  F0BB         	movff	?___flmul+3,___fldiv@b+3
  3367   002D9E  EC2F  F00C         	call	___fldiv	;wreg free
  3368   002DA2  C0B8  F0C4         	movff	?___fldiv,___fladd@b
  3369   002DA6  C0B9  F0C5         	movff	?___fldiv+1,___fladd@b+1
  3370   002DAA  C0BA  F0C6         	movff	?___fldiv+2,___fladd@b+2
  3371   002DAE  C0BB  F0C7         	movff	?___fldiv+3,___fladd@b+3
  3372   002DB2  EC03  F003         	call	___fladd	;wreg free
  3373   002DB6  C0C4  F195         	movff	?___fladd,___fltol@f1
  3374   002DBA  C0C5  F196         	movff	?___fladd+1,___fltol@f1+1
  3375   002DBE  C0C6  F197         	movff	?___fladd+2,___fltol@f1+2
  3376   002DC2  C0C7  F198         	movff	?___fladd+3,___fltol@f1+3
  3377   002DC6  EC7E  F015         	call	___fltol	;wreg free
  3378   002DCA  0101               	movlb	1	; () banked
  3379   002DCC  5195               	movf	?___fltol& (0+255),w,b
  3380   002DCE  6ECB               	movwf	203,c	;volatile
  3381   002DD0                     
  3382                           ; BSR set to: 1
  3383   002DD0  0012               	return		;funcret
  3384   002DD2                     __end_of_PWMSetPeriod:
  3385                           	callstack 0
  3386                           
  3387 ;; *************** function ___xxtofl *****************
  3388 ;; Defined at:
  3389 ;;		line 10 in file "/Applications/microchip/xc8/v2.50/pic/sources/c99/common/xxtofl.c"
  3390 ;; Parameters:    Size  Location     Type
  3391 ;;  sign            1    wreg     unsigned char 
  3392 ;;  val             4   31[BANK0 ] long 
  3393 ;; Auto vars:     Size  Location     Type
  3394 ;;  sign            1   39[BANK0 ] unsigned char 
  3395 ;;  arg             4   41[BANK0 ] unsigned long 
  3396 ;;  exp             1   40[BANK0 ] unsigned char 
  3397 ;; Return value:  Size  Location     Type
  3398 ;;                  4   31[BANK0 ] unsigned char 
  3399 ;; Registers used:
  3400 ;;		wreg, status,2, status,0
  3401 ;; Tracked objects:
  3402 ;;		On entry : 0/0
  3403 ;;		On exit  : 0/0
  3404 ;;		Unchanged: 0/0
  3405 ;; Data sizes:     COMRAM   BANK0   BANK1   BANK2   BANK3   BANK4   BANK5
  3406 ;;      Params:         0       4       0       0       0       0       0
  3407 ;;      Locals:         0       6       0       0       0       0       0
  3408 ;;      Temps:          0       4       0       0       0       0       0
  3409 ;;      Totals:         0      14       0       0       0       0       0
  3410 ;;Total ram usage:       14 bytes
  3411 ;; Hardware stack levels used: 1
  3412 ;; Hardware stack levels required when called: 4
  3413 ;; This function calls:
  3414 ;;		Nothing
  3415 ;; This function is called by:
  3416 ;;		_PWMSetPeriod
  3417 ;;		_PWMSetDutyCycle
  3418 ;;		_ComponentInitialize
  3419 ;;		_Timer2Initialize
  3420 ;;		_MotorRotateDegree
  3421 ;;		_MotorRotateDegreeWithDelay
  3422 ;;		_Timer2SetPeriod
  3423 ;; This function uses a non-reentrant model
  3424 ;;
  3425                           
  3426                           	psect	text12
  3427   002264                     __ptext12:
  3428                           	callstack 0
  3429   002264                     ___xxtofl:
  3430                           	callstack 24
  3431                           
  3432                           ; BSR set to: 1
  3433                           ;incstack = 0
  3434                           ;___xxtofl@sign stored from wreg
  3435   002264  0100               	movlb	0	; () banked
  3436   002266  6FA7               	movwf	___xxtofl@sign& (0+255),b
  3437   002268  0100               	movlb	0	; () banked
  3438   00226A  51A7               	movf	___xxtofl@sign& (0+255),w,b
  3439   00226C  B4D8               	btfsc	status,2,c
  3440   00226E  EF3B  F011         	goto	u3391
  3441   002272  EF3D  F011         	goto	u3390
  3442   002276                     u3391:
  3443   002276  EF5F  F011         	goto	l975
  3444   00227A                     u3390:
  3445   00227A                     
  3446                           ; BSR set to: 0
  3447   00227A  BFA2               	btfsc	(___xxtofl@val+3)& (0+255),7,b
  3448   00227C  EF44  F011         	goto	u3400
  3449   002280  EF42  F011         	goto	u3401
  3450   002284                     u3401:
  3451   002284  EF5F  F011         	goto	l975
  3452   002288                     u3400:
  3453   002288                     
  3454                           ; BSR set to: 0
  3455   002288  C09F  F0A3         	movff	___xxtofl@val,??___xxtofl
  3456   00228C  C0A0  F0A4         	movff	___xxtofl@val+1,??___xxtofl+1
  3457   002290  C0A1  F0A5         	movff	___xxtofl@val+2,??___xxtofl+2
  3458   002294  C0A2  F0A6         	movff	___xxtofl@val+3,??___xxtofl+3
  3459   002298  1FA3               	comf	??___xxtofl& (0+255),f,b
  3460   00229A  1FA4               	comf	(??___xxtofl+1)& (0+255),f,b
  3461   00229C  1FA5               	comf	(??___xxtofl+2)& (0+255),f,b
  3462   00229E  1FA6               	comf	(??___xxtofl+3)& (0+255),f,b
  3463   0022A0  2BA3               	incf	??___xxtofl& (0+255),f,b
  3464   0022A2  0E00               	movlw	0
  3465   0022A4  23A4               	addwfc	(??___xxtofl+1)& (0+255),f,b
  3466   0022A6  23A5               	addwfc	(??___xxtofl+2)& (0+255),f,b
  3467   0022A8  23A6               	addwfc	(??___xxtofl+3)& (0+255),f,b
  3468   0022AA  C0A3  F0A9         	movff	??___xxtofl,___xxtofl@arg
  3469   0022AE  C0A4  F0AA         	movff	??___xxtofl+1,___xxtofl@arg+1
  3470   0022B2  C0A5  F0AB         	movff	??___xxtofl+2,___xxtofl@arg+2
  3471   0022B6  C0A6  F0AC         	movff	??___xxtofl+3,___xxtofl@arg+3
  3472   0022BA  EF67  F011         	goto	l2996
  3473   0022BE                     l975:
  3474                           
  3475                           ; BSR set to: 0
  3476   0022BE  C09F  F0A9         	movff	___xxtofl@val,___xxtofl@arg
  3477   0022C2  C0A0  F0AA         	movff	___xxtofl@val+1,___xxtofl@arg+1
  3478   0022C6  C0A1  F0AB         	movff	___xxtofl@val+2,___xxtofl@arg+2
  3479   0022CA  C0A2  F0AC         	movff	___xxtofl@val+3,___xxtofl@arg+3
  3480   0022CE                     l2996:
  3481                           
  3482                           ; BSR set to: 0
  3483   0022CE  519F               	movf	___xxtofl@val& (0+255),w,b
  3484   0022D0  11A0               	iorwf	(___xxtofl@val+1)& (0+255),w,b
  3485   0022D2  11A1               	iorwf	(___xxtofl@val+2)& (0+255),w,b
  3486   0022D4  11A2               	iorwf	(___xxtofl@val+3)& (0+255),w,b
  3487   0022D6  A4D8               	btfss	status,2,c
  3488   0022D8  EF70  F011         	goto	u3411
  3489   0022DC  EF72  F011         	goto	u3410
  3490   0022E0                     u3411:
  3491   0022E0  EF7C  F011         	goto	l3002
  3492   0022E4                     u3410:
  3493   0022E4                     
  3494                           ; BSR set to: 0
  3495   0022E4  0E00               	movlw	0
  3496   0022E6  6F9F               	movwf	?___xxtofl& (0+255),b
  3497   0022E8  0E00               	movlw	0
  3498   0022EA  6FA0               	movwf	(?___xxtofl+1)& (0+255),b
  3499   0022EC  0E00               	movlw	0
  3500   0022EE  6FA1               	movwf	(?___xxtofl+2)& (0+255),b
  3501   0022F0  0E00               	movlw	0
  3502   0022F2  6FA2               	movwf	(?___xxtofl+3)& (0+255),b
  3503   0022F4  EF0D  F012         	goto	l978
  3504   0022F8                     l3002:
  3505                           
  3506                           ; BSR set to: 0
  3507   0022F8  0E96               	movlw	150
  3508   0022FA  6FA8               	movwf	___xxtofl@exp& (0+255),b
  3509   0022FC  EF86  F011         	goto	l3006
  3510   002300                     l3004:
  3511                           
  3512                           ; BSR set to: 0
  3513   002300  2BA8               	incf	___xxtofl@exp& (0+255),f,b
  3514   002302  90D8               	bcf	status,0,c
  3515   002304  33AC               	rrcf	(___xxtofl@arg+3)& (0+255),f,b
  3516   002306  33AB               	rrcf	(___xxtofl@arg+2)& (0+255),f,b
  3517   002308  33AA               	rrcf	(___xxtofl@arg+1)& (0+255),f,b
  3518   00230A  33A9               	rrcf	___xxtofl@arg& (0+255),f,b
  3519   00230C                     l3006:
  3520                           
  3521                           ; BSR set to: 0
  3522   00230C  0E00               	movlw	0
  3523   00230E  15A9               	andwf	___xxtofl@arg& (0+255),w,b
  3524   002310  6FA3               	movwf	??___xxtofl& (0+255),b
  3525   002312  0E00               	movlw	0
  3526   002314  15AA               	andwf	(___xxtofl@arg+1)& (0+255),w,b
  3527   002316  6FA4               	movwf	(??___xxtofl+1)& (0+255),b
  3528   002318  0E00               	movlw	0
  3529   00231A  15AB               	andwf	(___xxtofl@arg+2)& (0+255),w,b
  3530   00231C  6FA5               	movwf	(??___xxtofl+2)& (0+255),b
  3531   00231E  0EFE               	movlw	254
  3532   002320  15AC               	andwf	(___xxtofl@arg+3)& (0+255),w,b
  3533   002322  6FA6               	movwf	(??___xxtofl+3)& (0+255),b
  3534   002324  51A3               	movf	??___xxtofl& (0+255),w,b
  3535   002326  11A4               	iorwf	(??___xxtofl+1)& (0+255),w,b
  3536   002328  11A5               	iorwf	(??___xxtofl+2)& (0+255),w,b
  3537   00232A  11A6               	iorwf	(??___xxtofl+3)& (0+255),w,b
  3538   00232C  A4D8               	btfss	status,2,c
  3539   00232E  EF9B  F011         	goto	u3421
  3540   002332  EF9D  F011         	goto	u3420
  3541   002336                     u3421:
  3542   002336  EF80  F011         	goto	l3004
  3543   00233A                     u3420:
  3544   00233A  EFAB  F011         	goto	l982
  3545   00233E                     l3008:
  3546                           
  3547                           ; BSR set to: 0
  3548   00233E  2BA8               	incf	___xxtofl@exp& (0+255),f,b
  3549   002340                     
  3550                           ; BSR set to: 0
  3551   002340  0E01               	movlw	1
  3552   002342  27A9               	addwf	___xxtofl@arg& (0+255),f,b
  3553   002344  0E00               	movlw	0
  3554   002346  23AA               	addwfc	(___xxtofl@arg+1)& (0+255),f,b
  3555   002348  23AB               	addwfc	(___xxtofl@arg+2)& (0+255),f,b
  3556   00234A  23AC               	addwfc	(___xxtofl@arg+3)& (0+255),f,b
  3557   00234C                     
  3558                           ; BSR set to: 0
  3559   00234C  90D8               	bcf	status,0,c
  3560   00234E  33AC               	rrcf	(___xxtofl@arg+3)& (0+255),f,b
  3561   002350  33AB               	rrcf	(___xxtofl@arg+2)& (0+255),f,b
  3562   002352  33AA               	rrcf	(___xxtofl@arg+1)& (0+255),f,b
  3563   002354  33A9               	rrcf	___xxtofl@arg& (0+255),f,b
  3564   002356                     l982:
  3565                           
  3566                           ; BSR set to: 0
  3567   002356  0E00               	movlw	0
  3568   002358  15A9               	andwf	___xxtofl@arg& (0+255),w,b
  3569   00235A  6FA3               	movwf	??___xxtofl& (0+255),b
  3570   00235C  0E00               	movlw	0
  3571   00235E  15AA               	andwf	(___xxtofl@arg+1)& (0+255),w,b
  3572   002360  6FA4               	movwf	(??___xxtofl+1)& (0+255),b
  3573   002362  0E00               	movlw	0
  3574   002364  15AB               	andwf	(___xxtofl@arg+2)& (0+255),w,b
  3575   002366  6FA5               	movwf	(??___xxtofl+2)& (0+255),b
  3576   002368  0EFF               	movlw	255
  3577   00236A  15AC               	andwf	(___xxtofl@arg+3)& (0+255),w,b
  3578   00236C  6FA6               	movwf	(??___xxtofl+3)& (0+255),b
  3579   00236E  51A3               	movf	??___xxtofl& (0+255),w,b
  3580   002370  11A4               	iorwf	(??___xxtofl+1)& (0+255),w,b
  3581   002372  11A5               	iorwf	(??___xxtofl+2)& (0+255),w,b
  3582   002374  11A6               	iorwf	(??___xxtofl+3)& (0+255),w,b
  3583   002376  A4D8               	btfss	status,2,c
  3584   002378  EFC0  F011         	goto	u3431
  3585   00237C  EFC2  F011         	goto	u3430
  3586   002380                     u3431:
  3587   002380  EF9F  F011         	goto	l3008
  3588   002384                     u3430:
  3589   002384  EFCA  F011         	goto	l3016
  3590   002388                     l3014:
  3591                           
  3592                           ; BSR set to: 0
  3593   002388  07A8               	decf	___xxtofl@exp& (0+255),f,b
  3594   00238A  90D8               	bcf	status,0,c
  3595   00238C  37A9               	rlcf	___xxtofl@arg& (0+255),f,b
  3596   00238E  37AA               	rlcf	(___xxtofl@arg+1)& (0+255),f,b
  3597   002390  37AB               	rlcf	(___xxtofl@arg+2)& (0+255),f,b
  3598   002392  37AC               	rlcf	(___xxtofl@arg+3)& (0+255),f,b
  3599   002394                     l3016:
  3600                           
  3601                           ; BSR set to: 0
  3602   002394  BFAB               	btfsc	(___xxtofl@arg+2)& (0+255),7,b
  3603   002396  EFCF  F011         	goto	u3441
  3604   00239A  EFD1  F011         	goto	u3440
  3605   00239E                     u3441:
  3606   00239E  EFD9  F011         	goto	l989
  3607   0023A2                     u3440:
  3608   0023A2                     
  3609                           ; BSR set to: 0
  3610   0023A2  0E02               	movlw	2
  3611   0023A4  61A8               	cpfslt	___xxtofl@exp& (0+255),b
  3612   0023A6  EFD7  F011         	goto	u3451
  3613   0023AA  EFD9  F011         	goto	u3450
  3614   0023AE                     u3451:
  3615   0023AE  EFC4  F011         	goto	l3014
  3616   0023B2                     u3450:
  3617   0023B2                     l989:
  3618                           
  3619                           ; BSR set to: 0
  3620   0023B2  B1A8               	btfsc	___xxtofl@exp& (0+255),0,b
  3621   0023B4  EFDE  F011         	goto	u3461
  3622   0023B8  EFE0  F011         	goto	u3460
  3623   0023BC                     u3461:
  3624   0023BC  EFE1  F011         	goto	l3022
  3625   0023C0                     u3460:
  3626   0023C0                     
  3627                           ; BSR set to: 0
  3628   0023C0  9FAB               	bcf	(___xxtofl@arg+2)& (0+255),7,b
  3629   0023C2                     l3022:
  3630                           
  3631                           ; BSR set to: 0
  3632   0023C2  90D8               	bcf	status,0,c
  3633   0023C4  33A8               	rrcf	___xxtofl@exp& (0+255),f,b
  3634   0023C6                     
  3635                           ; BSR set to: 0
  3636   0023C6  C0A8  F0A3         	movff	___xxtofl@exp,??___xxtofl
  3637   0023CA  6BA4               	clrf	(??___xxtofl+1)& (0+255),b
  3638   0023CC  6BA5               	clrf	(??___xxtofl+2)& (0+255),b
  3639   0023CE  6BA6               	clrf	(??___xxtofl+3)& (0+255),b
  3640   0023D0  C0A3  F0A6         	movff	??___xxtofl,??___xxtofl+3
  3641   0023D4  6BA5               	clrf	(??___xxtofl+2)& (0+255),b
  3642   0023D6  6BA4               	clrf	(??___xxtofl+1)& (0+255),b
  3643   0023D8  6BA3               	clrf	??___xxtofl& (0+255),b
  3644   0023DA  51A3               	movf	??___xxtofl& (0+255),w,b
  3645   0023DC  13A9               	iorwf	___xxtofl@arg& (0+255),f,b
  3646   0023DE  51A4               	movf	(??___xxtofl+1)& (0+255),w,b
  3647   0023E0  13AA               	iorwf	(___xxtofl@arg+1)& (0+255),f,b
  3648   0023E2  51A5               	movf	(??___xxtofl+2)& (0+255),w,b
  3649   0023E4  13AB               	iorwf	(___xxtofl@arg+2)& (0+255),f,b
  3650   0023E6  51A6               	movf	(??___xxtofl+3)& (0+255),w,b
  3651   0023E8  13AC               	iorwf	(___xxtofl@arg+3)& (0+255),f,b
  3652   0023EA                     
  3653                           ; BSR set to: 0
  3654   0023EA  51A7               	movf	___xxtofl@sign& (0+255),w,b
  3655   0023EC  B4D8               	btfsc	status,2,c
  3656   0023EE  EFFB  F011         	goto	u3471
  3657   0023F2  EFFD  F011         	goto	u3470
  3658   0023F6                     u3471:
  3659   0023F6  EF05  F012         	goto	l3032
  3660   0023FA                     u3470:
  3661   0023FA                     
  3662                           ; BSR set to: 0
  3663   0023FA  BFA2               	btfsc	(___xxtofl@val+3)& (0+255),7,b
  3664   0023FC  EF04  F012         	goto	u3480
  3665   002400  EF02  F012         	goto	u3481
  3666   002404                     u3481:
  3667   002404  EF05  F012         	goto	l3032
  3668   002408                     u3480:
  3669   002408                     
  3670                           ; BSR set to: 0
  3671   002408  8FAC               	bsf	(___xxtofl@arg+3)& (0+255),7,b
  3672   00240A                     l3032:
  3673                           
  3674                           ; BSR set to: 0
  3675   00240A  C0A9  F09F         	movff	___xxtofl@arg,?___xxtofl
  3676   00240E  C0AA  F0A0         	movff	___xxtofl@arg+1,?___xxtofl+1
  3677   002412  C0AB  F0A1         	movff	___xxtofl@arg+2,?___xxtofl+2
  3678   002416  C0AC  F0A2         	movff	___xxtofl@arg+3,?___xxtofl+3
  3679   00241A                     l978:
  3680                           
  3681                           ; BSR set to: 0
  3682   00241A  0012               	return		;funcret
  3683   00241C                     __end_of___xxtofl:
  3684                           	callstack 0
  3685                           
  3686 ;; *************** function ___fltol *****************
  3687 ;; Defined at:
  3688 ;;		line 43 in file "/Applications/microchip/xc8/v2.50/pic/sources/c99/common/fltol.c"
  3689 ;; Parameters:    Size  Location     Type
  3690 ;;  f1              4   21[BANK1 ] unsigned char 
  3691 ;; Auto vars:     Size  Location     Type
  3692 ;;  exp1            1   30[BANK1 ] unsigned char 
  3693 ;;  sign1           1   29[BANK1 ] unsigned char 
  3694 ;; Return value:  Size  Location     Type
  3695 ;;                  4   21[BANK1 ] long 
  3696 ;; Registers used:
  3697 ;;		wreg, status,2, status,0
  3698 ;; Tracked objects:
  3699 ;;		On entry : 0/0
  3700 ;;		On exit  : 0/0
  3701 ;;		Unchanged: 0/0
  3702 ;; Data sizes:     COMRAM   BANK0   BANK1   BANK2   BANK3   BANK4   BANK5
  3703 ;;      Params:         0       0       4       0       0       0       0
  3704 ;;      Locals:         0       0       2       0       0       0       0
  3705 ;;      Temps:          0       0       4       0       0       0       0
  3706 ;;      Totals:         0       0      10       0       0       0       0
  3707 ;;Total ram usage:       10 bytes
  3708 ;; Hardware stack levels used: 1
  3709 ;; Hardware stack levels required when called: 4
  3710 ;; This function calls:
  3711 ;;		Nothing
  3712 ;; This function is called by:
  3713 ;;		_PWMSetPeriod
  3714 ;;		_PWMSetDutyCycle
  3715 ;;		_Timer2Initialize
  3716 ;;		_Timer2SetPeriod
  3717 ;; This function uses a non-reentrant model
  3718 ;;
  3719                           
  3720                           	psect	text13
  3721   002AFC                     __ptext13:
  3722                           	callstack 0
  3723   002AFC                     ___fltol:
  3724                           	callstack 24
  3725   002AFC  0101               	movlb	1	; () banked
  3726   002AFE  3597               	rlcf	(___fltol@f1+2)& (0+255),w,b
  3727   002B00  3598               	rlcf	(___fltol@f1+3)& (0+255),w,b
  3728   002B02  6F9E               	movwf	___fltol@exp1& (0+255),b
  3729   002B04  519E               	movf	___fltol@exp1& (0+255),w,b
  3730   002B06  A4D8               	btfss	status,2,c
  3731   002B08  EF88  F015         	goto	u3321
  3732   002B0C  EF8A  F015         	goto	u3320
  3733   002B10                     u3321:
  3734   002B10  EF94  F015         	goto	l2952
  3735   002B14                     u3320:
  3736   002B14                     l2948:
  3737                           
  3738                           ; BSR set to: 1
  3739   002B14  0E00               	movlw	0
  3740   002B16  6F95               	movwf	?___fltol& (0+255),b
  3741   002B18  0E00               	movlw	0
  3742   002B1A  6F96               	movwf	(?___fltol+1)& (0+255),b
  3743   002B1C  0E00               	movlw	0
  3744   002B1E  6F97               	movwf	(?___fltol+2)& (0+255),b
  3745   002B20  0E00               	movlw	0
  3746   002B22  6F98               	movwf	(?___fltol+3)& (0+255),b
  3747   002B24  EF01  F016         	goto	l617
  3748   002B28                     l2952:
  3749                           
  3750                           ; BSR set to: 1
  3751   002B28  C195  F199         	movff	___fltol@f1,??___fltol
  3752   002B2C  C196  F19A         	movff	___fltol@f1+1,??___fltol+1
  3753   002B30  C197  F19B         	movff	___fltol@f1+2,??___fltol+2
  3754   002B34  C198  F19C         	movff	___fltol@f1+3,??___fltol+3
  3755   002B38  0E20               	movlw	32
  3756   002B3A  EFA4  F015         	goto	u3330
  3757   002B3E                     u3335:
  3758   002B3E  90D8               	bcf	status,0,c
  3759   002B40  339C               	rrcf	(??___fltol+3)& (0+255),f,b
  3760   002B42  339B               	rrcf	(??___fltol+2)& (0+255),f,b
  3761   002B44  339A               	rrcf	(??___fltol+1)& (0+255),f,b
  3762   002B46  3399               	rrcf	??___fltol& (0+255),f,b
  3763   002B48                     u3330:
  3764   002B48  2EE8               	decfsz	wreg,f,c
  3765   002B4A  EF9F  F015         	goto	u3335
  3766   002B4E  5199               	movf	??___fltol& (0+255),w,b
  3767   002B50  6F9D               	movwf	___fltol@sign1& (0+255),b
  3768   002B52                     
  3769                           ; BSR set to: 1
  3770   002B52  8F97               	bsf	(___fltol@f1+2)& (0+255),7,b
  3771   002B54                     
  3772                           ; BSR set to: 1
  3773   002B54  0EFF               	movlw	255
  3774   002B56  1795               	andwf	___fltol@f1& (0+255),f,b
  3775   002B58  0EFF               	movlw	255
  3776   002B5A  1796               	andwf	(___fltol@f1+1)& (0+255),f,b
  3777   002B5C  0EFF               	movlw	255
  3778   002B5E  1797               	andwf	(___fltol@f1+2)& (0+255),f,b
  3779   002B60  0E00               	movlw	0
  3780   002B62  1798               	andwf	(___fltol@f1+3)& (0+255),f,b
  3781   002B64                     
  3782                           ; BSR set to: 1
  3783   002B64  0E96               	movlw	150
  3784   002B66  5F9E               	subwf	___fltol@exp1& (0+255),f,b
  3785   002B68                     
  3786                           ; BSR set to: 1
  3787   002B68  BF9E               	btfsc	___fltol@exp1& (0+255),7,b
  3788   002B6A  EFBB  F015         	goto	u3340
  3789   002B6E  EFB9  F015         	goto	u3341
  3790   002B72                     u3341:
  3791   002B72  EFD1  F015         	goto	l2972
  3792   002B76                     u3340:
  3793   002B76                     
  3794                           ; BSR set to: 1
  3795   002B76  519E               	movf	___fltol@exp1& (0+255),w,b
  3796   002B78  0A80               	xorlw	128
  3797   002B7A  0F97               	addlw	151
  3798   002B7C  B0D8               	btfsc	status,0,c
  3799   002B7E  EFC3  F015         	goto	u3351
  3800   002B82  EFC5  F015         	goto	u3350
  3801   002B86                     u3351:
  3802   002B86  EFC7  F015         	goto	l2968
  3803   002B8A                     u3350:
  3804   002B8A  EF8A  F015         	goto	l2948
  3805   002B8E                     l2968:
  3806                           
  3807                           ; BSR set to: 1
  3808   002B8E  90D8               	bcf	status,0,c
  3809   002B90  3398               	rrcf	(___fltol@f1+3)& (0+255),f,b
  3810   002B92  3397               	rrcf	(___fltol@f1+2)& (0+255),f,b
  3811   002B94  3396               	rrcf	(___fltol@f1+1)& (0+255),f,b
  3812   002B96  3395               	rrcf	___fltol@f1& (0+255),f,b
  3813   002B98                     
  3814                           ; BSR set to: 1
  3815   002B98  3F9E               	incfsz	___fltol@exp1& (0+255),f,b
  3816   002B9A  EFC7  F015         	goto	l2968
  3817   002B9E  EFE9  F015         	goto	l2982
  3818   002BA2                     l2972:
  3819                           
  3820                           ; BSR set to: 1
  3821   002BA2  0E1F               	movlw	31
  3822   002BA4  659E               	cpfsgt	___fltol@exp1& (0+255),b
  3823   002BA6  EFD7  F015         	goto	u3361
  3824   002BAA  EFD9  F015         	goto	u3360
  3825   002BAE                     u3361:
  3826   002BAE  EFE1  F015         	goto	l2980
  3827   002BB2                     u3360:
  3828   002BB2  EF8A  F015         	goto	l2948
  3829   002BB6                     l2978:
  3830                           
  3831                           ; BSR set to: 1
  3832   002BB6  90D8               	bcf	status,0,c
  3833   002BB8  3795               	rlcf	___fltol@f1& (0+255),f,b
  3834   002BBA  3796               	rlcf	(___fltol@f1+1)& (0+255),f,b
  3835   002BBC  3797               	rlcf	(___fltol@f1+2)& (0+255),f,b
  3836   002BBE  3798               	rlcf	(___fltol@f1+3)& (0+255),f,b
  3837   002BC0  079E               	decf	___fltol@exp1& (0+255),f,b
  3838   002BC2                     l2980:
  3839                           
  3840                           ; BSR set to: 1
  3841   002BC2  519E               	movf	___fltol@exp1& (0+255),w,b
  3842   002BC4  A4D8               	btfss	status,2,c
  3843   002BC6  EFE7  F015         	goto	u3371
  3844   002BCA  EFE9  F015         	goto	u3370
  3845   002BCE                     u3371:
  3846   002BCE  EFDB  F015         	goto	l2978
  3847   002BD2                     u3370:
  3848   002BD2                     l2982:
  3849                           
  3850                           ; BSR set to: 1
  3851   002BD2  519D               	movf	___fltol@sign1& (0+255),w,b
  3852   002BD4  B4D8               	btfsc	status,2,c
  3853   002BD6  EFEF  F015         	goto	u3381
  3854   002BDA  EFF1  F015         	goto	u3380
  3855   002BDE                     u3381:
  3856   002BDE  EFF9  F015         	goto	l2986
  3857   002BE2                     u3380:
  3858   002BE2                     
  3859                           ; BSR set to: 1
  3860   002BE2  1F98               	comf	(___fltol@f1+3)& (0+255),f,b
  3861   002BE4  1F97               	comf	(___fltol@f1+2)& (0+255),f,b
  3862   002BE6  1F96               	comf	(___fltol@f1+1)& (0+255),f,b
  3863   002BE8  6D95               	negf	___fltol@f1& (0+255),b
  3864   002BEA  0E00               	movlw	0
  3865   002BEC  2396               	addwfc	(___fltol@f1+1)& (0+255),f,b
  3866   002BEE  2397               	addwfc	(___fltol@f1+2)& (0+255),f,b
  3867   002BF0  2398               	addwfc	(___fltol@f1+3)& (0+255),f,b
  3868   002BF2                     l2986:
  3869                           
  3870                           ; BSR set to: 1
  3871   002BF2  C195  F195         	movff	___fltol@f1,?___fltol
  3872   002BF6  C196  F196         	movff	___fltol@f1+1,?___fltol+1
  3873   002BFA  C197  F197         	movff	___fltol@f1+2,?___fltol+2
  3874   002BFE  C198  F198         	movff	___fltol@f1+3,?___fltol+3
  3875   002C02                     l617:
  3876                           
  3877                           ; BSR set to: 1
  3878   002C02  0012               	return		;funcret
  3879   002C04                     __end_of___fltol:
  3880                           	callstack 0
  3881                           
  3882 ;; *************** function ___flmul *****************
  3883 ;; Defined at:
  3884 ;;		line 8 in file "/Applications/microchip/xc8/v2.50/pic/sources/c99/common/sprcmul.c"
  3885 ;; Parameters:    Size  Location     Type
  3886 ;;  b               4   31[BANK0 ] long 
  3887 ;;  a               4   35[BANK0 ] long 
  3888 ;; Auto vars:     Size  Location     Type
  3889 ;;  prod            4   50[BANK0 ] struct .
  3890 ;;  grs             4   44[BANK0 ] unsigned long 
  3891 ;;  temp            2   54[BANK0 ] struct .
  3892 ;;  bexp            1   49[BANK0 ] unsigned char 
  3893 ;;  aexp            1   48[BANK0 ] unsigned char 
  3894 ;;  sign            1   43[BANK0 ] unsigned char 
  3895 ;; Return value:  Size  Location     Type
  3896 ;;                  4   31[BANK0 ] unsigned char 
  3897 ;; Registers used:
  3898 ;;		wreg, status,2, status,0, prodl, prodh
  3899 ;; Tracked objects:
  3900 ;;		On entry : 0/0
  3901 ;;		On exit  : 0/0
  3902 ;;		Unchanged: 0/0
  3903 ;; Data sizes:     COMRAM   BANK0   BANK1   BANK2   BANK3   BANK4   BANK5
  3904 ;;      Params:         0       8       0       0       0       0       0
  3905 ;;      Locals:         0      13       0       0       0       0       0
  3906 ;;      Temps:          0       4       0       0       0       0       0
  3907 ;;      Totals:         0      25       0       0       0       0       0
  3908 ;;Total ram usage:       25 bytes
  3909 ;; Hardware stack levels used: 1
  3910 ;; Hardware stack levels required when called: 4
  3911 ;; This function calls:
  3912 ;;		Nothing
  3913 ;; This function is called by:
  3914 ;;		_PWMSetPeriod
  3915 ;;		_PWMSetDutyCycle
  3916 ;;		_Timer2Initialize
  3917 ;;		_MotorRotateDegree
  3918 ;;		_MotorRotateDegreeWithDelay
  3919 ;;		_Timer2SetPeriod
  3920 ;; This function uses a non-reentrant model
  3921 ;;
  3922                           
  3923                           	psect	text14
  3924   001010                     __ptext14:
  3925                           	callstack 0
  3926   001010                     ___flmul:
  3927                           	callstack 24
  3928   001010  0100               	movlb	0	; () banked
  3929   001012  51A2               	movf	(___flmul@b+3)& (0+255),w,b
  3930   001014  0B80               	andlw	128
  3931   001016  6FAB               	movwf	___flmul@sign& (0+255),b
  3932   001018  51A2               	movf	(___flmul@b+3)& (0+255),w,b
  3933   00101A  25A2               	addwf	(___flmul@b+3)& (0+255),w,b
  3934   00101C  6FB1               	movwf	___flmul@bexp& (0+255),b
  3935   00101E                     
  3936                           ; BSR set to: 0
  3937   00101E  AFA1               	btfss	(___flmul@b+2)& (0+255),7,b
  3938   001020  EF14  F008         	goto	u3131
  3939   001024  EF16  F008         	goto	u3130
  3940   001028                     u3131:
  3941   001028  EF17  F008         	goto	l2824
  3942   00102C                     u3130:
  3943   00102C                     
  3944                           ; BSR set to: 0
  3945   00102C  81B1               	bsf	___flmul@bexp& (0+255),0,b
  3946   00102E                     l2824:
  3947                           
  3948                           ; BSR set to: 0
  3949   00102E  51B1               	movf	___flmul@bexp& (0+255),w,b
  3950   001030  B4D8               	btfsc	status,2,c
  3951   001032  EF1D  F008         	goto	u3141
  3952   001036  EF1F  F008         	goto	u3140
  3953   00103A                     u3141:
  3954   00103A  EF32  F008         	goto	l2832
  3955   00103E                     u3140:
  3956   00103E                     
  3957                           ; BSR set to: 0
  3958   00103E  29B1               	incf	___flmul@bexp& (0+255),w,b
  3959   001040  A4D8               	btfss	status,2,c
  3960   001042  EF25  F008         	goto	u3151
  3961   001046  EF27  F008         	goto	u3150
  3962   00104A                     u3151:
  3963   00104A  EF2F  F008         	goto	l2830
  3964   00104E                     u3150:
  3965   00104E                     
  3966                           ; BSR set to: 0
  3967   00104E  0E00               	movlw	0
  3968   001050  6F9F               	movwf	___flmul@b& (0+255),b
  3969   001052  0E00               	movlw	0
  3970   001054  6FA0               	movwf	(___flmul@b+1)& (0+255),b
  3971   001056  0E00               	movlw	0
  3972   001058  6FA1               	movwf	(___flmul@b+2)& (0+255),b
  3973   00105A  0E00               	movlw	0
  3974   00105C  6FA2               	movwf	(___flmul@b+3)& (0+255),b
  3975   00105E                     l2830:
  3976                           
  3977                           ; BSR set to: 0
  3978   00105E  8FA1               	bsf	(___flmul@b+2)& (0+255),7,b
  3979   001060  EF3A  F008         	goto	l2834
  3980   001064                     l2832:
  3981                           
  3982                           ; BSR set to: 0
  3983   001064  0E00               	movlw	0
  3984   001066  6F9F               	movwf	___flmul@b& (0+255),b
  3985   001068  0E00               	movlw	0
  3986   00106A  6FA0               	movwf	(___flmul@b+1)& (0+255),b
  3987   00106C  0E00               	movlw	0
  3988   00106E  6FA1               	movwf	(___flmul@b+2)& (0+255),b
  3989   001070  0E00               	movlw	0
  3990   001072  6FA2               	movwf	(___flmul@b+3)& (0+255),b
  3991   001074                     l2834:
  3992                           
  3993                           ; BSR set to: 0
  3994   001074  51A6               	movf	(___flmul@a+3)& (0+255),w,b
  3995   001076  0B80               	andlw	128
  3996   001078  1BAB               	xorwf	___flmul@sign& (0+255),f,b
  3997   00107A                     
  3998                           ; BSR set to: 0
  3999   00107A  51A6               	movf	(___flmul@a+3)& (0+255),w,b
  4000   00107C  25A6               	addwf	(___flmul@a+3)& (0+255),w,b
  4001   00107E  6FB0               	movwf	___flmul@aexp& (0+255),b
  4002   001080                     
  4003                           ; BSR set to: 0
  4004   001080  AFA5               	btfss	(___flmul@a+2)& (0+255),7,b
  4005   001082  EF45  F008         	goto	u3161
  4006   001086  EF47  F008         	goto	u3160
  4007   00108A                     u3161:
  4008   00108A  EF48  F008         	goto	l2842
  4009   00108E                     u3160:
  4010   00108E                     
  4011                           ; BSR set to: 0
  4012   00108E  81B0               	bsf	___flmul@aexp& (0+255),0,b
  4013   001090                     l2842:
  4014                           
  4015                           ; BSR set to: 0
  4016   001090  51B0               	movf	___flmul@aexp& (0+255),w,b
  4017   001092  B4D8               	btfsc	status,2,c
  4018   001094  EF4E  F008         	goto	u3171
  4019   001098  EF50  F008         	goto	u3170
  4020   00109C                     u3171:
  4021   00109C  EF63  F008         	goto	l2850
  4022   0010A0                     u3170:
  4023   0010A0                     
  4024                           ; BSR set to: 0
  4025   0010A0  29B0               	incf	___flmul@aexp& (0+255),w,b
  4026   0010A2  A4D8               	btfss	status,2,c
  4027   0010A4  EF56  F008         	goto	u3181
  4028   0010A8  EF58  F008         	goto	u3180
  4029   0010AC                     u3181:
  4030   0010AC  EF60  F008         	goto	l2848
  4031   0010B0                     u3180:
  4032   0010B0                     
  4033                           ; BSR set to: 0
  4034   0010B0  0E00               	movlw	0
  4035   0010B2  6FA3               	movwf	___flmul@a& (0+255),b
  4036   0010B4  0E00               	movlw	0
  4037   0010B6  6FA4               	movwf	(___flmul@a+1)& (0+255),b
  4038   0010B8  0E00               	movlw	0
  4039   0010BA  6FA5               	movwf	(___flmul@a+2)& (0+255),b
  4040   0010BC  0E00               	movlw	0
  4041   0010BE  6FA6               	movwf	(___flmul@a+3)& (0+255),b
  4042   0010C0                     l2848:
  4043                           
  4044                           ; BSR set to: 0
  4045   0010C0  8FA5               	bsf	(___flmul@a+2)& (0+255),7,b
  4046   0010C2  EF6B  F008         	goto	l934
  4047   0010C6                     l2850:
  4048                           
  4049                           ; BSR set to: 0
  4050   0010C6  0E00               	movlw	0
  4051   0010C8  6FA3               	movwf	___flmul@a& (0+255),b
  4052   0010CA  0E00               	movlw	0
  4053   0010CC  6FA4               	movwf	(___flmul@a+1)& (0+255),b
  4054   0010CE  0E00               	movlw	0
  4055   0010D0  6FA5               	movwf	(___flmul@a+2)& (0+255),b
  4056   0010D2  0E00               	movlw	0
  4057   0010D4  6FA6               	movwf	(___flmul@a+3)& (0+255),b
  4058   0010D6                     l934:
  4059                           
  4060                           ; BSR set to: 0
  4061   0010D6  51B0               	movf	___flmul@aexp& (0+255),w,b
  4062   0010D8  B4D8               	btfsc	status,2,c
  4063   0010DA  EF71  F008         	goto	u3191
  4064   0010DE  EF73  F008         	goto	u3190
  4065   0010E2                     u3191:
  4066   0010E2  EF7B  F008         	goto	l2854
  4067   0010E6                     u3190:
  4068   0010E6                     
  4069                           ; BSR set to: 0
  4070   0010E6  51B1               	movf	___flmul@bexp& (0+255),w,b
  4071   0010E8  A4D8               	btfss	status,2,c
  4072   0010EA  EF79  F008         	goto	u3201
  4073   0010EE  EF7B  F008         	goto	u3200
  4074   0010F2                     u3201:
  4075   0010F2  EF85  F008         	goto	l2858
  4076   0010F6                     u3200:
  4077   0010F6                     l2854:
  4078                           
  4079                           ; BSR set to: 0
  4080   0010F6  0E00               	movlw	0
  4081   0010F8  6F9F               	movwf	?___flmul& (0+255),b
  4082   0010FA  0E00               	movlw	0
  4083   0010FC  6FA0               	movwf	(?___flmul+1)& (0+255),b
  4084   0010FE  0E00               	movlw	0
  4085   001100  6FA1               	movwf	(?___flmul+2)& (0+255),b
  4086   001102  0E00               	movlw	0
  4087   001104  6FA2               	movwf	(?___flmul+3)& (0+255),b
  4088   001106  EF1B  F00A         	goto	l938
  4089   00110A                     l2858:
  4090                           
  4091                           ; BSR set to: 0
  4092   00110A  51A5               	movf	(___flmul@a+2)& (0+255),w,b
  4093   00110C  039F               	mulwf	___flmul@b& (0+255),b
  4094   00110E  CFF3 F0B6          	movff	prodl,___flmul@temp
  4095   001112  CFF4 F0B7          	movff	prodh,___flmul@temp+1
  4096   001116                     
  4097                           ; BSR set to: 0
  4098   001116  51B6               	movf	___flmul@temp& (0+255),w,b
  4099   001118  6FAC               	movwf	___flmul@grs& (0+255),b
  4100   00111A  6BAD               	clrf	(___flmul@grs+1)& (0+255),b
  4101   00111C  6BAE               	clrf	(___flmul@grs+2)& (0+255),b
  4102   00111E  6BAF               	clrf	(___flmul@grs+3)& (0+255),b
  4103   001120                     
  4104                           ; BSR set to: 0
  4105   001120  51B7               	movf	(___flmul@temp+1)& (0+255),w,b
  4106   001122  6FB2               	movwf	___flmul@prod& (0+255),b
  4107   001124  6BB3               	clrf	(___flmul@prod+1)& (0+255),b
  4108   001126  6BB4               	clrf	(___flmul@prod+2)& (0+255),b
  4109   001128  6BB5               	clrf	(___flmul@prod+3)& (0+255),b
  4110   00112A  51A4               	movf	(___flmul@a+1)& (0+255),w,b
  4111   00112C  03A0               	mulwf	(___flmul@b+1)& (0+255),b
  4112   00112E  CFF3 F0B6          	movff	prodl,___flmul@temp
  4113   001132  CFF4 F0B7          	movff	prodh,___flmul@temp+1
  4114   001136                     
  4115                           ; BSR set to: 0
  4116   001136  51B6               	movf	___flmul@temp& (0+255),w,b
  4117   001138  27AC               	addwf	___flmul@grs& (0+255),f,b
  4118   00113A  0E00               	movlw	0
  4119   00113C  23AD               	addwfc	(___flmul@grs+1)& (0+255),f,b
  4120   00113E  23AE               	addwfc	(___flmul@grs+2)& (0+255),f,b
  4121   001140  23AF               	addwfc	(___flmul@grs+3)& (0+255),f,b
  4122   001142                     
  4123                           ; BSR set to: 0
  4124   001142  51B7               	movf	(___flmul@temp+1)& (0+255),w,b
  4125   001144  27B2               	addwf	___flmul@prod& (0+255),f,b
  4126   001146  0E00               	movlw	0
  4127   001148  23B3               	addwfc	(___flmul@prod+1)& (0+255),f,b
  4128   00114A  23B4               	addwfc	(___flmul@prod+2)& (0+255),f,b
  4129   00114C  23B5               	addwfc	(___flmul@prod+3)& (0+255),f,b
  4130   00114E  51A3               	movf	___flmul@a& (0+255),w,b
  4131   001150  03A1               	mulwf	(___flmul@b+2)& (0+255),b
  4132   001152  CFF3 F0B6          	movff	prodl,___flmul@temp
  4133   001156  CFF4 F0B7          	movff	prodh,___flmul@temp+1
  4134   00115A                     
  4135                           ; BSR set to: 0
  4136   00115A  51B6               	movf	___flmul@temp& (0+255),w,b
  4137   00115C  27AC               	addwf	___flmul@grs& (0+255),f,b
  4138   00115E  0E00               	movlw	0
  4139   001160  23AD               	addwfc	(___flmul@grs+1)& (0+255),f,b
  4140   001162  23AE               	addwfc	(___flmul@grs+2)& (0+255),f,b
  4141   001164  23AF               	addwfc	(___flmul@grs+3)& (0+255),f,b
  4142   001166                     
  4143                           ; BSR set to: 0
  4144   001166  51B7               	movf	(___flmul@temp+1)& (0+255),w,b
  4145   001168  27B2               	addwf	___flmul@prod& (0+255),f,b
  4146   00116A  0E00               	movlw	0
  4147   00116C  23B3               	addwfc	(___flmul@prod+1)& (0+255),f,b
  4148   00116E  23B4               	addwfc	(___flmul@prod+2)& (0+255),f,b
  4149   001170  23B5               	addwfc	(___flmul@prod+3)& (0+255),f,b
  4150   001172                     
  4151                           ; BSR set to: 0
  4152   001172  C0AE  F0AF         	movff	___flmul@grs+2,___flmul@grs+3
  4153   001176  C0AD  F0AE         	movff	___flmul@grs+1,___flmul@grs+2
  4154   00117A  C0AC  F0AD         	movff	___flmul@grs,___flmul@grs+1
  4155   00117E  6BAC               	clrf	___flmul@grs& (0+255),b
  4156   001180                     
  4157                           ; BSR set to: 0
  4158   001180  51A3               	movf	___flmul@a& (0+255),w,b
  4159   001182  03A0               	mulwf	(___flmul@b+1)& (0+255),b
  4160   001184  CFF3 F0B6          	movff	prodl,___flmul@temp
  4161   001188  CFF4 F0B7          	movff	prodh,___flmul@temp+1
  4162   00118C                     
  4163                           ; BSR set to: 0
  4164   00118C  51B6               	movf	___flmul@temp& (0+255),w,b
  4165   00118E  27AC               	addwf	___flmul@grs& (0+255),f,b
  4166   001190  51B7               	movf	(___flmul@temp+1)& (0+255),w,b
  4167   001192  23AD               	addwfc	(___flmul@grs+1)& (0+255),f,b
  4168   001194  0E00               	movlw	0
  4169   001196  23AE               	addwfc	(___flmul@grs+2)& (0+255),f,b
  4170   001198  0E00               	movlw	0
  4171   00119A  23AF               	addwfc	(___flmul@grs+3)& (0+255),f,b
  4172   00119C                     
  4173                           ; BSR set to: 0
  4174   00119C  51A4               	movf	(___flmul@a+1)& (0+255),w,b
  4175   00119E  039F               	mulwf	___flmul@b& (0+255),b
  4176   0011A0  CFF3 F0B6          	movff	prodl,___flmul@temp
  4177   0011A4  CFF4 F0B7          	movff	prodh,___flmul@temp+1
  4178   0011A8                     
  4179                           ; BSR set to: 0
  4180   0011A8  51B6               	movf	___flmul@temp& (0+255),w,b
  4181   0011AA  27AC               	addwf	___flmul@grs& (0+255),f,b
  4182   0011AC  51B7               	movf	(___flmul@temp+1)& (0+255),w,b
  4183   0011AE  23AD               	addwfc	(___flmul@grs+1)& (0+255),f,b
  4184   0011B0  0E00               	movlw	0
  4185   0011B2  23AE               	addwfc	(___flmul@grs+2)& (0+255),f,b
  4186   0011B4  0E00               	movlw	0
  4187   0011B6  23AF               	addwfc	(___flmul@grs+3)& (0+255),f,b
  4188   0011B8                     
  4189                           ; BSR set to: 0
  4190   0011B8  C0AE  F0AF         	movff	___flmul@grs+2,___flmul@grs+3
  4191   0011BC  C0AD  F0AE         	movff	___flmul@grs+1,___flmul@grs+2
  4192   0011C0  C0AC  F0AD         	movff	___flmul@grs,___flmul@grs+1
  4193   0011C4  6BAC               	clrf	___flmul@grs& (0+255),b
  4194   0011C6  51A3               	movf	___flmul@a& (0+255),w,b
  4195   0011C8  039F               	mulwf	___flmul@b& (0+255),b
  4196   0011CA  CFF3 F0B6          	movff	prodl,___flmul@temp
  4197   0011CE  CFF4 F0B7          	movff	prodh,___flmul@temp+1
  4198   0011D2                     
  4199                           ; BSR set to: 0
  4200   0011D2  51B6               	movf	___flmul@temp& (0+255),w,b
  4201   0011D4  27AC               	addwf	___flmul@grs& (0+255),f,b
  4202   0011D6  51B7               	movf	(___flmul@temp+1)& (0+255),w,b
  4203   0011D8  23AD               	addwfc	(___flmul@grs+1)& (0+255),f,b
  4204   0011DA  0E00               	movlw	0
  4205   0011DC  23AE               	addwfc	(___flmul@grs+2)& (0+255),f,b
  4206   0011DE  0E00               	movlw	0
  4207   0011E0  23AF               	addwfc	(___flmul@grs+3)& (0+255),f,b
  4208   0011E2                     
  4209                           ; BSR set to: 0
  4210   0011E2  51A5               	movf	(___flmul@a+2)& (0+255),w,b
  4211   0011E4  03A0               	mulwf	(___flmul@b+1)& (0+255),b
  4212   0011E6  CFF3 F0B6          	movff	prodl,___flmul@temp
  4213   0011EA  CFF4 F0B7          	movff	prodh,___flmul@temp+1
  4214   0011EE  51B6               	movf	___flmul@temp& (0+255),w,b
  4215   0011F0  27B2               	addwf	___flmul@prod& (0+255),f,b
  4216   0011F2  51B7               	movf	(___flmul@temp+1)& (0+255),w,b
  4217   0011F4  23B3               	addwfc	(___flmul@prod+1)& (0+255),f,b
  4218   0011F6  0E00               	movlw	0
  4219   0011F8  23B4               	addwfc	(___flmul@prod+2)& (0+255),f,b
  4220   0011FA  0E00               	movlw	0
  4221   0011FC  23B5               	addwfc	(___flmul@prod+3)& (0+255),f,b
  4222   0011FE                     
  4223                           ; BSR set to: 0
  4224   0011FE  51A4               	movf	(___flmul@a+1)& (0+255),w,b
  4225   001200  03A1               	mulwf	(___flmul@b+2)& (0+255),b
  4226   001202  CFF3 F0B6          	movff	prodl,___flmul@temp
  4227   001206  CFF4 F0B7          	movff	prodh,___flmul@temp+1
  4228   00120A                     
  4229                           ; BSR set to: 0
  4230   00120A  51B6               	movf	___flmul@temp& (0+255),w,b
  4231   00120C  27B2               	addwf	___flmul@prod& (0+255),f,b
  4232   00120E  51B7               	movf	(___flmul@temp+1)& (0+255),w,b
  4233   001210  23B3               	addwfc	(___flmul@prod+1)& (0+255),f,b
  4234   001212  0E00               	movlw	0
  4235   001214  23B4               	addwfc	(___flmul@prod+2)& (0+255),f,b
  4236   001216  0E00               	movlw	0
  4237   001218  23B5               	addwfc	(___flmul@prod+3)& (0+255),f,b
  4238   00121A  51A5               	movf	(___flmul@a+2)& (0+255),w,b
  4239   00121C  03A1               	mulwf	(___flmul@b+2)& (0+255),b
  4240   00121E  CFF3 F0B6          	movff	prodl,___flmul@temp
  4241   001222  CFF4 F0B7          	movff	prodh,___flmul@temp+1
  4242   001226                     
  4243                           ; BSR set to: 0
  4244   001226  51B6               	movf	___flmul@temp& (0+255),w,b
  4245   001228  6FA7               	movwf	??___flmul& (0+255),b
  4246   00122A  51B7               	movf	(___flmul@temp+1)& (0+255),w,b
  4247   00122C  6FA8               	movwf	(??___flmul+1)& (0+255),b
  4248   00122E  6BA9               	clrf	(??___flmul+2)& (0+255),b
  4249   001230  6BAA               	clrf	(??___flmul+3)& (0+255),b
  4250   001232  C0A9  F0AA         	movff	??___flmul+2,??___flmul+3
  4251   001236  C0A8  F0A9         	movff	??___flmul+1,??___flmul+2
  4252   00123A  C0A7  F0A8         	movff	??___flmul,??___flmul+1
  4253   00123E  6BA7               	clrf	??___flmul& (0+255),b
  4254   001240  51A7               	movf	??___flmul& (0+255),w,b
  4255   001242  27B2               	addwf	___flmul@prod& (0+255),f,b
  4256   001244  51A8               	movf	(??___flmul+1)& (0+255),w,b
  4257   001246  23B3               	addwfc	(___flmul@prod+1)& (0+255),f,b
  4258   001248  51A9               	movf	(??___flmul+2)& (0+255),w,b
  4259   00124A  23B4               	addwfc	(___flmul@prod+2)& (0+255),f,b
  4260   00124C  51AA               	movf	(??___flmul+3)& (0+255),w,b
  4261   00124E  23B5               	addwfc	(___flmul@prod+3)& (0+255),f,b
  4262   001250                     
  4263                           ; BSR set to: 0
  4264   001250  C0AC  F0A7         	movff	___flmul@grs,??___flmul
  4265   001254  C0AD  F0A8         	movff	___flmul@grs+1,??___flmul+1
  4266   001258  C0AE  F0A9         	movff	___flmul@grs+2,??___flmul+2
  4267   00125C  C0AF  F0AA         	movff	___flmul@grs+3,??___flmul+3
  4268   001260  0E19               	movlw	25
  4269   001262  EF38  F009         	goto	u3210
  4270   001266                     u3215:
  4271   001266  90D8               	bcf	status,0,c
  4272   001268  33AA               	rrcf	(??___flmul+3)& (0+255),f,b
  4273   00126A  33A9               	rrcf	(??___flmul+2)& (0+255),f,b
  4274   00126C  33A8               	rrcf	(??___flmul+1)& (0+255),f,b
  4275   00126E  33A7               	rrcf	??___flmul& (0+255),f,b
  4276   001270                     u3210:
  4277   001270  2EE8               	decfsz	wreg,f,c
  4278   001272  EF33  F009         	goto	u3215
  4279   001276  51A7               	movf	??___flmul& (0+255),w,b
  4280   001278  27B2               	addwf	___flmul@prod& (0+255),f,b
  4281   00127A  51A8               	movf	(??___flmul+1)& (0+255),w,b
  4282   00127C  23B3               	addwfc	(___flmul@prod+1)& (0+255),f,b
  4283   00127E  51A9               	movf	(??___flmul+2)& (0+255),w,b
  4284   001280  23B4               	addwfc	(___flmul@prod+2)& (0+255),f,b
  4285   001282  51AA               	movf	(??___flmul+3)& (0+255),w,b
  4286   001284  23B5               	addwfc	(___flmul@prod+3)& (0+255),f,b
  4287   001286                     
  4288                           ; BSR set to: 0
  4289   001286  C0AE  F0AF         	movff	___flmul@grs+2,___flmul@grs+3
  4290   00128A  C0AD  F0AE         	movff	___flmul@grs+1,___flmul@grs+2
  4291   00128E  C0AC  F0AD         	movff	___flmul@grs,___flmul@grs+1
  4292   001292  6BAC               	clrf	___flmul@grs& (0+255),b
  4293   001294                     
  4294                           ; BSR set to: 0
  4295   001294  51B0               	movf	___flmul@aexp& (0+255),w,b
  4296   001296  C0B1  F0A7         	movff	___flmul@bexp,??___flmul
  4297   00129A  6BA8               	clrf	(??___flmul+1)& (0+255),b
  4298   00129C  27A7               	addwf	??___flmul& (0+255),f,b
  4299   00129E  0E00               	movlw	0
  4300   0012A0  23A8               	addwfc	(??___flmul+1)& (0+255),f,b
  4301   0012A2  0E82               	movlw	130
  4302   0012A4  25A7               	addwf	??___flmul& (0+255),w,b
  4303   0012A6  6FB6               	movwf	___flmul@temp& (0+255),b
  4304   0012A8  0EFF               	movlw	255
  4305   0012AA  21A8               	addwfc	(??___flmul+1)& (0+255),w,b
  4306   0012AC  6FB7               	movwf	(___flmul@temp+1)& (0+255),b
  4307   0012AE  EF6E  F009         	goto	l2906
  4308   0012B2                     l2900:
  4309                           
  4310                           ; BSR set to: 0
  4311   0012B2  90D8               	bcf	status,0,c
  4312   0012B4  37B2               	rlcf	___flmul@prod& (0+255),f,b
  4313   0012B6  37B3               	rlcf	(___flmul@prod+1)& (0+255),f,b
  4314   0012B8  37B4               	rlcf	(___flmul@prod+2)& (0+255),f,b
  4315   0012BA  37B5               	rlcf	(___flmul@prod+3)& (0+255),f,b
  4316   0012BC                     
  4317                           ; BSR set to: 0
  4318   0012BC  AFAF               	btfss	(___flmul@grs+3)& (0+255),7,b
  4319   0012BE  EF63  F009         	goto	u3221
  4320   0012C2  EF65  F009         	goto	u3220
  4321   0012C6                     u3221:
  4322   0012C6  EF66  F009         	goto	l941
  4323   0012CA                     u3220:
  4324   0012CA                     
  4325                           ; BSR set to: 0
  4326   0012CA  81B2               	bsf	___flmul@prod& (0+255),0,b
  4327   0012CC                     l941:
  4328                           
  4329                           ; BSR set to: 0
  4330   0012CC  90D8               	bcf	status,0,c
  4331   0012CE  37AC               	rlcf	___flmul@grs& (0+255),f,b
  4332   0012D0  37AD               	rlcf	(___flmul@grs+1)& (0+255),f,b
  4333   0012D2  37AE               	rlcf	(___flmul@grs+2)& (0+255),f,b
  4334   0012D4  37AF               	rlcf	(___flmul@grs+3)& (0+255),f,b
  4335   0012D6  07B6               	decf	___flmul@temp& (0+255),f,b
  4336   0012D8  A0D8               	btfss	status,0,c
  4337   0012DA  07B7               	decf	(___flmul@temp+1)& (0+255),f,b
  4338   0012DC                     l2906:
  4339                           
  4340                           ; BSR set to: 0
  4341   0012DC  AFB4               	btfss	(___flmul@prod+2)& (0+255),7,b
  4342   0012DE  EF73  F009         	goto	u3231
  4343   0012E2  EF75  F009         	goto	u3230
  4344   0012E6                     u3231:
  4345   0012E6  EF59  F009         	goto	l2900
  4346   0012EA                     u3230:
  4347   0012EA                     
  4348                           ; BSR set to: 0
  4349   0012EA  6BB0               	clrf	___flmul@aexp& (0+255),b
  4350   0012EC  AFAF               	btfss	(___flmul@grs+3)& (0+255),7,b
  4351   0012EE  EF7B  F009         	goto	u3241
  4352   0012F2  EF7D  F009         	goto	u3240
  4353   0012F6                     u3241:
  4354   0012F6  EFA1  F009         	goto	l943
  4355   0012FA                     u3240:
  4356   0012FA                     
  4357                           ; BSR set to: 0
  4358   0012FA  0EFF               	movlw	255
  4359   0012FC  15AC               	andwf	___flmul@grs& (0+255),w,b
  4360   0012FE  6FA7               	movwf	??___flmul& (0+255),b
  4361   001300  0EFF               	movlw	255
  4362   001302  15AD               	andwf	(___flmul@grs+1)& (0+255),w,b
  4363   001304  6FA8               	movwf	(??___flmul+1)& (0+255),b
  4364   001306  0EFF               	movlw	255
  4365   001308  15AE               	andwf	(___flmul@grs+2)& (0+255),w,b
  4366   00130A  6FA9               	movwf	(??___flmul+2)& (0+255),b
  4367   00130C  0E7F               	movlw	127
  4368   00130E  15AF               	andwf	(___flmul@grs+3)& (0+255),w,b
  4369   001310  6FAA               	movwf	(??___flmul+3)& (0+255),b
  4370   001312  51A7               	movf	??___flmul& (0+255),w,b
  4371   001314  11A8               	iorwf	(??___flmul+1)& (0+255),w,b
  4372   001316  11A9               	iorwf	(??___flmul+2)& (0+255),w,b
  4373   001318  11AA               	iorwf	(??___flmul+3)& (0+255),w,b
  4374   00131A  B4D8               	btfsc	status,2,c
  4375   00131C  EF92  F009         	goto	u3251
  4376   001320  EF94  F009         	goto	u3250
  4377   001324                     u3251:
  4378   001324  EF98  F009         	goto	l944
  4379   001328                     u3250:
  4380   001328                     l2910:
  4381                           
  4382                           ; BSR set to: 0
  4383   001328  0E01               	movlw	1
  4384   00132A  6FB0               	movwf	___flmul@aexp& (0+255),b
  4385   00132C  EFA1  F009         	goto	l943
  4386   001330                     l944:
  4387                           
  4388                           ; BSR set to: 0
  4389   001330  A1B2               	btfss	___flmul@prod& (0+255),0,b
  4390   001332  EF9D  F009         	goto	u3261
  4391   001336  EF9F  F009         	goto	u3260
  4392   00133A                     u3261:
  4393   00133A  EFA1  F009         	goto	l943
  4394   00133E                     u3260:
  4395   00133E  EF94  F009         	goto	l2910
  4396   001342                     l943:
  4397                           
  4398                           ; BSR set to: 0
  4399   001342  51B0               	movf	___flmul@aexp& (0+255),w,b
  4400   001344  B4D8               	btfsc	status,2,c
  4401   001346  EFA7  F009         	goto	u3271
  4402   00134A  EFA9  F009         	goto	u3270
  4403   00134E                     u3271:
  4404   00134E  EFCD  F009         	goto	l2922
  4405   001352                     u3270:
  4406   001352                     
  4407                           ; BSR set to: 0
  4408   001352  0E01               	movlw	1
  4409   001354  27B2               	addwf	___flmul@prod& (0+255),f,b
  4410   001356  0E00               	movlw	0
  4411   001358  23B3               	addwfc	(___flmul@prod+1)& (0+255),f,b
  4412   00135A  23B4               	addwfc	(___flmul@prod+2)& (0+255),f,b
  4413   00135C  23B5               	addwfc	(___flmul@prod+3)& (0+255),f,b
  4414   00135E                     
  4415                           ; BSR set to: 0
  4416   00135E  A1B5               	btfss	(___flmul@prod+3)& (0+255),0,b
  4417   001360  EFB4  F009         	goto	u3281
  4418   001364  EFB6  F009         	goto	u3280
  4419   001368                     u3281:
  4420   001368  EFCD  F009         	goto	l2922
  4421   00136C                     u3280:
  4422   00136C                     
  4423                           ; BSR set to: 0
  4424   00136C  C0B2  F0A7         	movff	___flmul@prod,??___flmul
  4425   001370  C0B3  F0A8         	movff	___flmul@prod+1,??___flmul+1
  4426   001374  C0B4  F0A9         	movff	___flmul@prod+2,??___flmul+2
  4427   001378  C0B5  F0AA         	movff	___flmul@prod+3,??___flmul+3
  4428   00137C  35AA               	rlcf	(??___flmul+3)& (0+255),w,b
  4429   00137E  33AA               	rrcf	(??___flmul+3)& (0+255),f,b
  4430   001380  33A9               	rrcf	(??___flmul+2)& (0+255),f,b
  4431   001382  33A8               	rrcf	(??___flmul+1)& (0+255),f,b
  4432   001384  33A7               	rrcf	??___flmul& (0+255),f,b
  4433   001386  C0A7  F0B2         	movff	??___flmul,___flmul@prod
  4434   00138A  C0A8  F0B3         	movff	??___flmul+1,___flmul@prod+1
  4435   00138E  C0A9  F0B4         	movff	??___flmul+2,___flmul@prod+2
  4436   001392  C0AA  F0B5         	movff	??___flmul+3,___flmul@prod+3
  4437   001396                     
  4438                           ; BSR set to: 0
  4439   001396  4BB6               	infsnz	___flmul@temp& (0+255),f,b
  4440   001398  2BB7               	incf	(___flmul@temp+1)& (0+255),f,b
  4441   00139A                     l2922:
  4442                           
  4443                           ; BSR set to: 0
  4444   00139A  BFB7               	btfsc	(___flmul@temp+1)& (0+255),7,b
  4445   00139C  EFD8  F009         	goto	u3291
  4446   0013A0  51B7               	movf	(___flmul@temp+1)& (0+255),w,b
  4447   0013A2  E108               	bnz	u3290
  4448   0013A4  29B6               	incf	___flmul@temp& (0+255),w,b
  4449   0013A6  A0D8               	btfss	status,0,c
  4450   0013A8  EFD8  F009         	goto	u3291
  4451   0013AC  EFDA  F009         	goto	u3290
  4452   0013B0                     u3291:
  4453   0013B0  EFE4  F009         	goto	l2926
  4454   0013B4                     u3290:
  4455   0013B4                     
  4456                           ; BSR set to: 0
  4457   0013B4  0E00               	movlw	0
  4458   0013B6  6FB2               	movwf	___flmul@prod& (0+255),b
  4459   0013B8  0E00               	movlw	0
  4460   0013BA  6FB3               	movwf	(___flmul@prod+1)& (0+255),b
  4461   0013BC  0E80               	movlw	128
  4462   0013BE  6FB4               	movwf	(___flmul@prod+2)& (0+255),b
  4463   0013C0  0E7F               	movlw	127
  4464   0013C2  6FB5               	movwf	(___flmul@prod+3)& (0+255),b
  4465   0013C4  EF11  F00A         	goto	l2940
  4466   0013C8                     l2926:
  4467                           
  4468                           ; BSR set to: 0
  4469   0013C8  BFB7               	btfsc	(___flmul@temp+1)& (0+255),7,b
  4470   0013CA  EFF1  F009         	goto	u3300
  4471   0013CE  51B7               	movf	(___flmul@temp+1)& (0+255),w,b
  4472   0013D0  E106               	bnz	u3301
  4473   0013D2  05B6               	decf	___flmul@temp& (0+255),w,b
  4474   0013D4  B0D8               	btfsc	status,0,c
  4475   0013D6  EFEF  F009         	goto	u3301
  4476   0013DA  EFF1  F009         	goto	u3300
  4477   0013DE                     u3301:
  4478   0013DE  EFFC  F009         	goto	l951
  4479   0013E2                     u3300:
  4480   0013E2                     
  4481                           ; BSR set to: 0
  4482   0013E2  0E00               	movlw	0
  4483   0013E4  6FB2               	movwf	___flmul@prod& (0+255),b
  4484   0013E6  0E00               	movlw	0
  4485   0013E8  6FB3               	movwf	(___flmul@prod+1)& (0+255),b
  4486   0013EA  0E00               	movlw	0
  4487   0013EC  6FB4               	movwf	(___flmul@prod+2)& (0+255),b
  4488   0013EE  0E00               	movlw	0
  4489   0013F0  6FB5               	movwf	(___flmul@prod+3)& (0+255),b
  4490   0013F2                     
  4491                           ; BSR set to: 0
  4492   0013F2  6BAB               	clrf	___flmul@sign& (0+255),b
  4493   0013F4  EF11  F00A         	goto	l2940
  4494   0013F8                     l951:
  4495                           
  4496                           ; BSR set to: 0
  4497   0013F8  C0B6  F0B1         	movff	___flmul@temp,___flmul@bexp
  4498   0013FC                     
  4499                           ; BSR set to: 0
  4500   0013FC  0EFF               	movlw	255
  4501   0013FE  17B2               	andwf	___flmul@prod& (0+255),f,b
  4502   001400  0EFF               	movlw	255
  4503   001402  17B3               	andwf	(___flmul@prod+1)& (0+255),f,b
  4504   001404  0E7F               	movlw	127
  4505   001406  17B4               	andwf	(___flmul@prod+2)& (0+255),f,b
  4506   001408  0E00               	movlw	0
  4507   00140A  17B5               	andwf	(___flmul@prod+3)& (0+255),f,b
  4508   00140C                     
  4509                           ; BSR set to: 0
  4510   00140C  A1B1               	btfss	___flmul@bexp& (0+255),0,b
  4511   00140E  EF0B  F00A         	goto	u3311
  4512   001412  EF0D  F00A         	goto	u3310
  4513   001416                     u3311:
  4514   001416  EF0E  F00A         	goto	l2938
  4515   00141A                     u3310:
  4516   00141A                     
  4517                           ; BSR set to: 0
  4518   00141A  8FB4               	bsf	(___flmul@prod+2)& (0+255),7,b
  4519   00141C                     l2938:
  4520                           
  4521                           ; BSR set to: 0
  4522   00141C  90D8               	bcf	status,0,c
  4523   00141E  31B1               	rrcf	___flmul@bexp& (0+255),w,b
  4524   001420  6FB5               	movwf	(___flmul@prod+3)& (0+255),b
  4525   001422                     l2940:
  4526                           
  4527                           ; BSR set to: 0
  4528   001422  51AB               	movf	___flmul@sign& (0+255),w,b
  4529   001424  13B5               	iorwf	(___flmul@prod+3)& (0+255),f,b
  4530   001426                     
  4531                           ; BSR set to: 0
  4532   001426  C0B2  F09F         	movff	___flmul@prod,?___flmul
  4533   00142A  C0B3  F0A0         	movff	___flmul@prod+1,?___flmul+1
  4534   00142E  C0B4  F0A1         	movff	___flmul@prod+2,?___flmul+2
  4535   001432  C0B5  F0A2         	movff	___flmul@prod+3,?___flmul+3
  4536   001436                     l938:
  4537                           
  4538                           ; BSR set to: 0
  4539   001436  0012               	return		;funcret
  4540   001438                     __end_of___flmul:
  4541                           	callstack 0
  4542                           
  4543 ;; *************** function ___fldiv *****************
  4544 ;; Defined at:
  4545 ;;		line 11 in file "/Applications/microchip/xc8/v2.50/pic/sources/c99/common/sprcdiv.c"
  4546 ;; Parameters:    Size  Location     Type
  4547 ;;  b               4   56[BANK0 ] unsigned char 
  4548 ;;  a               4   60[BANK0 ] unsigned char 
  4549 ;; Auto vars:     Size  Location     Type
  4550 ;;  grs             4    7[BANK1 ] unsigned long 
  4551 ;;  rem             4    0[BANK1 ] unsigned long 
  4552 ;;  new_exp         2    5[BANK1 ] short 
  4553 ;;  aexp            1   12[BANK1 ] unsigned char 
  4554 ;;  bexp            1   11[BANK1 ] unsigned char 
  4555 ;;  sign            1    4[BANK1 ] unsigned char 
  4556 ;; Return value:  Size  Location     Type
  4557 ;;                  4   56[BANK0 ] unsigned char 
  4558 ;; Registers used:
  4559 ;;		wreg, status,2, status,0
  4560 ;; Tracked objects:
  4561 ;;		On entry : 0/0
  4562 ;;		On exit  : 0/0
  4563 ;;		Unchanged: 0/0
  4564 ;; Data sizes:     COMRAM   BANK0   BANK1   BANK2   BANK3   BANK4   BANK5
  4565 ;;      Params:         0       8       0       0       0       0       0
  4566 ;;      Locals:         0       0      13       0       0       0       0
  4567 ;;      Temps:          0       4       0       0       0       0       0
  4568 ;;      Totals:         0      12      13       0       0       0       0
  4569 ;;Total ram usage:       25 bytes
  4570 ;; Hardware stack levels used: 1
  4571 ;; Hardware stack levels required when called: 4
  4572 ;; This function calls:
  4573 ;;		Nothing
  4574 ;; This function is called by:
  4575 ;;		_PWMSetPeriod
  4576 ;;		_PWMSetDutyCycle
  4577 ;;		_Timer2Initialize
  4578 ;;		_MotorRotateDegree
  4579 ;;		_MotorRotateDegreeWithDelay
  4580 ;;		_Timer2SetPeriod
  4581 ;; This function uses a non-reentrant model
  4582 ;;
  4583                           
  4584                           	psect	text15
  4585   00185E                     __ptext15:
  4586                           	callstack 0
  4587   00185E                     ___fldiv:
  4588                           	callstack 24
  4589   00185E  0100               	movlb	0	; () banked
  4590   001860  51BB               	movf	(___fldiv@b+3)& (0+255),w,b
  4591   001862  0B80               	andlw	128
  4592   001864  0101               	movlb	1	; () banked
  4593   001866  6F84               	movwf	___fldiv@sign& (0+255),b
  4594   001868  0100               	movlb	0	; () banked
  4595   00186A  51BB               	movf	(___fldiv@b+3)& (0+255),w,b
  4596   00186C  25BB               	addwf	(___fldiv@b+3)& (0+255),w,b
  4597   00186E  0101               	movlb	1	; () banked
  4598   001870  6F8B               	movwf	___fldiv@bexp& (0+255),b
  4599   001872                     
  4600                           ; BSR set to: 1
  4601   001872  0100               	movlb	0	; () banked
  4602   001874  AFBA               	btfss	(___fldiv@b+2)& (0+255),7,b
  4603   001876  EF3F  F00C         	goto	u5371
  4604   00187A  EF41  F00C         	goto	u5370
  4605   00187E                     u5371:
  4606   00187E  EF43  F00C         	goto	l4146
  4607   001882                     u5370:
  4608   001882                     
  4609                           ; BSR set to: 0
  4610   001882  0101               	movlb	1	; () banked
  4611   001884  818B               	bsf	___fldiv@bexp& (0+255),0,b
  4612   001886                     l4146:
  4613   001886  0101               	movlb	1	; () banked
  4614   001888  518B               	movf	___fldiv@bexp& (0+255),w,b
  4615   00188A  B4D8               	btfsc	status,2,c
  4616   00188C  EF4A  F00C         	goto	u5381
  4617   001890  EF4C  F00C         	goto	u5380
  4618   001894                     u5381:
  4619   001894  EF62  F00C         	goto	l4156
  4620   001898                     u5380:
  4621   001898                     
  4622                           ; BSR set to: 1
  4623   001898  298B               	incf	___fldiv@bexp& (0+255),w,b
  4624   00189A  A4D8               	btfss	status,2,c
  4625   00189C  EF52  F00C         	goto	u5391
  4626   0018A0  EF54  F00C         	goto	u5390
  4627   0018A4                     u5391:
  4628   0018A4  EF5D  F00C         	goto	l4152
  4629   0018A8                     u5390:
  4630   0018A8                     
  4631                           ; BSR set to: 1
  4632   0018A8  0E00               	movlw	0
  4633   0018AA  0100               	movlb	0	; () banked
  4634   0018AC  6FB8               	movwf	___fldiv@b& (0+255),b
  4635   0018AE  0E00               	movlw	0
  4636   0018B0  6FB9               	movwf	(___fldiv@b+1)& (0+255),b
  4637   0018B2  0E00               	movlw	0
  4638   0018B4  6FBA               	movwf	(___fldiv@b+2)& (0+255),b
  4639   0018B6  0E00               	movlw	0
  4640   0018B8  6FBB               	movwf	(___fldiv@b+3)& (0+255),b
  4641   0018BA                     l4152:
  4642   0018BA  0100               	movlb	0	; () banked
  4643   0018BC  8FBA               	bsf	(___fldiv@b+2)& (0+255),7,b
  4644   0018BE                     
  4645                           ; BSR set to: 0
  4646   0018BE  6BBB               	clrf	(___fldiv@b+3)& (0+255),b
  4647   0018C0  EF6B  F00C         	goto	l4158
  4648   0018C4                     l4156:
  4649                           
  4650                           ; BSR set to: 1
  4651   0018C4  0E00               	movlw	0
  4652   0018C6  0100               	movlb	0	; () banked
  4653   0018C8  6FB8               	movwf	___fldiv@b& (0+255),b
  4654   0018CA  0E00               	movlw	0
  4655   0018CC  6FB9               	movwf	(___fldiv@b+1)& (0+255),b
  4656   0018CE  0E00               	movlw	0
  4657   0018D0  6FBA               	movwf	(___fldiv@b+2)& (0+255),b
  4658   0018D2  0E00               	movlw	0
  4659   0018D4  6FBB               	movwf	(___fldiv@b+3)& (0+255),b
  4660   0018D6                     l4158:
  4661                           
  4662                           ; BSR set to: 0
  4663   0018D6  51BF               	movf	(___fldiv@a+3)& (0+255),w,b
  4664   0018D8  0B80               	andlw	128
  4665   0018DA  0101               	movlb	1	; () banked
  4666   0018DC  1B84               	xorwf	___fldiv@sign& (0+255),f,b
  4667   0018DE                     
  4668                           ; BSR set to: 1
  4669   0018DE  0100               	movlb	0	; () banked
  4670   0018E0  51BF               	movf	(___fldiv@a+3)& (0+255),w,b
  4671   0018E2  25BF               	addwf	(___fldiv@a+3)& (0+255),w,b
  4672   0018E4  0101               	movlb	1	; () banked
  4673   0018E6  6F8C               	movwf	___fldiv@aexp& (0+255),b
  4674   0018E8                     
  4675                           ; BSR set to: 1
  4676   0018E8  0100               	movlb	0	; () banked
  4677   0018EA  AFBE               	btfss	(___fldiv@a+2)& (0+255),7,b
  4678   0018EC  EF7A  F00C         	goto	u5401
  4679   0018F0  EF7C  F00C         	goto	u5400
  4680   0018F4                     u5401:
  4681   0018F4  EF7E  F00C         	goto	l4166
  4682   0018F8                     u5400:
  4683   0018F8                     
  4684                           ; BSR set to: 0
  4685   0018F8  0101               	movlb	1	; () banked
  4686   0018FA  818C               	bsf	___fldiv@aexp& (0+255),0,b
  4687   0018FC                     l4166:
  4688   0018FC  0101               	movlb	1	; () banked
  4689   0018FE  518C               	movf	___fldiv@aexp& (0+255),w,b
  4690   001900  B4D8               	btfsc	status,2,c
  4691   001902  EF85  F00C         	goto	u5411
  4692   001906  EF87  F00C         	goto	u5410
  4693   00190A                     u5411:
  4694   00190A  EF9D  F00C         	goto	l4176
  4695   00190E                     u5410:
  4696   00190E                     
  4697                           ; BSR set to: 1
  4698   00190E  298C               	incf	___fldiv@aexp& (0+255),w,b
  4699   001910  A4D8               	btfss	status,2,c
  4700   001912  EF8D  F00C         	goto	u5421
  4701   001916  EF8F  F00C         	goto	u5420
  4702   00191A                     u5421:
  4703   00191A  EF98  F00C         	goto	l4172
  4704   00191E                     u5420:
  4705   00191E                     
  4706                           ; BSR set to: 1
  4707   00191E  0E00               	movlw	0
  4708   001920  0100               	movlb	0	; () banked
  4709   001922  6FBC               	movwf	___fldiv@a& (0+255),b
  4710   001924  0E00               	movlw	0
  4711   001926  6FBD               	movwf	(___fldiv@a+1)& (0+255),b
  4712   001928  0E00               	movlw	0
  4713   00192A  6FBE               	movwf	(___fldiv@a+2)& (0+255),b
  4714   00192C  0E00               	movlw	0
  4715   00192E  6FBF               	movwf	(___fldiv@a+3)& (0+255),b
  4716   001930                     l4172:
  4717   001930  0100               	movlb	0	; () banked
  4718   001932  8FBE               	bsf	(___fldiv@a+2)& (0+255),7,b
  4719   001934                     
  4720                           ; BSR set to: 0
  4721   001934  6BBF               	clrf	(___fldiv@a+3)& (0+255),b
  4722   001936  EFA6  F00C         	goto	l4178
  4723   00193A                     l4176:
  4724                           
  4725                           ; BSR set to: 1
  4726   00193A  0E00               	movlw	0
  4727   00193C  0100               	movlb	0	; () banked
  4728   00193E  6FBC               	movwf	___fldiv@a& (0+255),b
  4729   001940  0E00               	movlw	0
  4730   001942  6FBD               	movwf	(___fldiv@a+1)& (0+255),b
  4731   001944  0E00               	movlw	0
  4732   001946  6FBE               	movwf	(___fldiv@a+2)& (0+255),b
  4733   001948  0E00               	movlw	0
  4734   00194A  6FBF               	movwf	(___fldiv@a+3)& (0+255),b
  4735   00194C                     l4178:
  4736                           
  4737                           ; BSR set to: 0
  4738   00194C  51BC               	movf	___fldiv@a& (0+255),w,b
  4739   00194E  11BD               	iorwf	(___fldiv@a+1)& (0+255),w,b
  4740   001950  11BE               	iorwf	(___fldiv@a+2)& (0+255),w,b
  4741   001952  11BF               	iorwf	(___fldiv@a+3)& (0+255),w,b
  4742   001954  A4D8               	btfss	status,2,c
  4743   001956  EFAF  F00C         	goto	u5431
  4744   00195A  EFB1  F00C         	goto	u5430
  4745   00195E                     u5431:
  4746   00195E  EFCB  F00C         	goto	l4190
  4747   001962                     u5430:
  4748   001962                     
  4749                           ; BSR set to: 0
  4750   001962  0E00               	movlw	0
  4751   001964  6FB8               	movwf	___fldiv@b& (0+255),b
  4752   001966  0E00               	movlw	0
  4753   001968  6FB9               	movwf	(___fldiv@b+1)& (0+255),b
  4754   00196A  0E00               	movlw	0
  4755   00196C  6FBA               	movwf	(___fldiv@b+2)& (0+255),b
  4756   00196E  0E00               	movlw	0
  4757   001970  6FBB               	movwf	(___fldiv@b+3)& (0+255),b
  4758   001972                     
  4759                           ; BSR set to: 0
  4760   001972  0E80               	movlw	128
  4761   001974  13BA               	iorwf	(___fldiv@b+2)& (0+255),f,b
  4762   001976  0E7F               	movlw	127
  4763   001978  13BB               	iorwf	(___fldiv@b+3)& (0+255),f,b
  4764   00197A                     l4184:
  4765                           
  4766                           ; BSR set to: 0
  4767   00197A  0101               	movlb	1	; () banked
  4768   00197C  5184               	movf	___fldiv@sign& (0+255),w,b
  4769   00197E  0100               	movlb	0	; () banked
  4770   001980  13BB               	iorwf	(___fldiv@b+3)& (0+255),f,b
  4771   001982                     
  4772                           ; BSR set to: 0
  4773   001982  C0B8  F0B8         	movff	___fldiv@b,?___fldiv
  4774   001986  C0B9  F0B9         	movff	___fldiv@b+1,?___fldiv+1
  4775   00198A  C0BA  F0BA         	movff	___fldiv@b+2,?___fldiv+2
  4776   00198E  C0BB  F0BB         	movff	___fldiv@b+3,?___fldiv+3
  4777   001992  EF40  F00E         	goto	l902
  4778   001996                     l4190:
  4779                           
  4780                           ; BSR set to: 0
  4781   001996  0101               	movlb	1	; () banked
  4782   001998  518B               	movf	___fldiv@bexp& (0+255),w,b
  4783   00199A  A4D8               	btfss	status,2,c
  4784   00199C  EFD2  F00C         	goto	u5441
  4785   0019A0  EFD4  F00C         	goto	u5440
  4786   0019A4                     u5441:
  4787   0019A4  EFDF  F00C         	goto	l4198
  4788   0019A8                     u5440:
  4789   0019A8                     
  4790                           ; BSR set to: 1
  4791   0019A8  0E00               	movlw	0
  4792   0019AA  0100               	movlb	0	; () banked
  4793   0019AC  6FB8               	movwf	?___fldiv& (0+255),b
  4794   0019AE  0E00               	movlw	0
  4795   0019B0  6FB9               	movwf	(?___fldiv+1)& (0+255),b
  4796   0019B2  0E00               	movlw	0
  4797   0019B4  6FBA               	movwf	(?___fldiv+2)& (0+255),b
  4798   0019B6  0E00               	movlw	0
  4799   0019B8  6FBB               	movwf	(?___fldiv+3)& (0+255),b
  4800   0019BA  EF40  F00E         	goto	l902
  4801   0019BE                     l4198:
  4802                           
  4803                           ; BSR set to: 1
  4804   0019BE  518C               	movf	___fldiv@aexp& (0+255),w,b
  4805   0019C0  C18B  F0C0         	movff	___fldiv@bexp,??___fldiv
  4806   0019C4  0100               	movlb	0	; () banked
  4807   0019C6  6BC1               	clrf	(??___fldiv+1)& (0+255),b
  4808   0019C8  5FC0               	subwf	??___fldiv& (0+255),f,b
  4809   0019CA  0E00               	movlw	0
  4810   0019CC  5BC1               	subwfb	(??___fldiv+1)& (0+255),f,b
  4811   0019CE  0E7F               	movlw	127
  4812   0019D0  25C0               	addwf	??___fldiv& (0+255),w,b
  4813   0019D2  0101               	movlb	1	; () banked
  4814   0019D4  6F85               	movwf	___fldiv@new_exp& (0+255),b
  4815   0019D6  0E00               	movlw	0
  4816   0019D8  0100               	movlb	0	; () banked
  4817   0019DA  21C1               	addwfc	(??___fldiv+1)& (0+255),w,b
  4818   0019DC  0101               	movlb	1	; () banked
  4819   0019DE  6F86               	movwf	(___fldiv@new_exp+1)& (0+255),b
  4820   0019E0                     
  4821                           ; BSR set to: 1
  4822   0019E0  C0B8  F180         	movff	___fldiv@b,___fldiv@rem
  4823   0019E4  C0B9  F181         	movff	___fldiv@b+1,___fldiv@rem+1
  4824   0019E8  C0BA  F182         	movff	___fldiv@b+2,___fldiv@rem+2
  4825   0019EC  C0BB  F183         	movff	___fldiv@b+3,___fldiv@rem+3
  4826   0019F0                     
  4827                           ; BSR set to: 1
  4828   0019F0  0E00               	movlw	0
  4829   0019F2  0100               	movlb	0	; () banked
  4830   0019F4  6FB8               	movwf	___fldiv@b& (0+255),b
  4831   0019F6  0E00               	movlw	0
  4832   0019F8  6FB9               	movwf	(___fldiv@b+1)& (0+255),b
  4833   0019FA  0E00               	movlw	0
  4834   0019FC  6FBA               	movwf	(___fldiv@b+2)& (0+255),b
  4835   0019FE  0E00               	movlw	0
  4836   001A00  6FBB               	movwf	(___fldiv@b+3)& (0+255),b
  4837   001A02                     
  4838                           ; BSR set to: 0
  4839   001A02  0E00               	movlw	0
  4840   001A04  0101               	movlb	1	; () banked
  4841   001A06  6F87               	movwf	___fldiv@grs& (0+255),b
  4842   001A08  0E00               	movlw	0
  4843   001A0A  6F88               	movwf	(___fldiv@grs+1)& (0+255),b
  4844   001A0C  0E00               	movlw	0
  4845   001A0E  6F89               	movwf	(___fldiv@grs+2)& (0+255),b
  4846   001A10  0E00               	movlw	0
  4847   001A12  6F8A               	movwf	(___fldiv@grs+3)& (0+255),b
  4848   001A14                     
  4849                           ; BSR set to: 1
  4850   001A14  6B8C               	clrf	___fldiv@aexp& (0+255),b
  4851   001A16  EF59  F00D         	goto	l904
  4852   001A1A                     l4208:
  4853                           
  4854                           ; BSR set to: 1
  4855   001A1A  518C               	movf	___fldiv@aexp& (0+255),w,b
  4856   001A1C  B4D8               	btfsc	status,2,c
  4857   001A1E  EF13  F00D         	goto	u5451
  4858   001A22  EF15  F00D         	goto	u5450
  4859   001A26                     u5451:
  4860   001A26  EF30  F00D         	goto	l4216
  4861   001A2A                     u5450:
  4862   001A2A                     
  4863                           ; BSR set to: 1
  4864   001A2A  90D8               	bcf	status,0,c
  4865   001A2C  3780               	rlcf	___fldiv@rem& (0+255),f,b
  4866   001A2E  3781               	rlcf	(___fldiv@rem+1)& (0+255),f,b
  4867   001A30  3782               	rlcf	(___fldiv@rem+2)& (0+255),f,b
  4868   001A32  3783               	rlcf	(___fldiv@rem+3)& (0+255),f,b
  4869   001A34  0100               	movlb	0	; () banked
  4870   001A36  90D8               	bcf	status,0,c
  4871   001A38  37B8               	rlcf	___fldiv@b& (0+255),f,b
  4872   001A3A  37B9               	rlcf	(___fldiv@b+1)& (0+255),f,b
  4873   001A3C  37BA               	rlcf	(___fldiv@b+2)& (0+255),f,b
  4874   001A3E  37BB               	rlcf	(___fldiv@b+3)& (0+255),f,b
  4875   001A40                     
  4876                           ; BSR set to: 0
  4877   001A40  0101               	movlb	1	; () banked
  4878   001A42  AF8A               	btfss	(___fldiv@grs+3)& (0+255),7,b
  4879   001A44  EF26  F00D         	goto	u5461
  4880   001A48  EF28  F00D         	goto	u5460
  4881   001A4C                     u5461:
  4882   001A4C  EF2A  F00D         	goto	l907
  4883   001A50                     u5460:
  4884   001A50                     
  4885                           ; BSR set to: 1
  4886   001A50  0100               	movlb	0	; () banked
  4887   001A52  81B8               	bsf	___fldiv@b& (0+255),0,b
  4888   001A54                     l907:
  4889   001A54  0101               	movlb	1	; () banked
  4890   001A56  90D8               	bcf	status,0,c
  4891   001A58  3787               	rlcf	___fldiv@grs& (0+255),f,b
  4892   001A5A  3788               	rlcf	(___fldiv@grs+1)& (0+255),f,b
  4893   001A5C  3789               	rlcf	(___fldiv@grs+2)& (0+255),f,b
  4894   001A5E  378A               	rlcf	(___fldiv@grs+3)& (0+255),f,b
  4895   001A60                     l4216:
  4896                           
  4897                           ; BSR set to: 1
  4898   001A60  0100               	movlb	0	; () banked
  4899   001A62  51BC               	movf	___fldiv@a& (0+255),w,b
  4900   001A64  0101               	movlb	1	; () banked
  4901   001A66  5D80               	subwf	___fldiv@rem& (0+255),w,b
  4902   001A68  0100               	movlb	0	; () banked
  4903   001A6A  51BD               	movf	(___fldiv@a+1)& (0+255),w,b
  4904   001A6C  0101               	movlb	1	; () banked
  4905   001A6E  5981               	subwfb	(___fldiv@rem+1)& (0+255),w,b
  4906   001A70  0100               	movlb	0	; () banked
  4907   001A72  51BE               	movf	(___fldiv@a+2)& (0+255),w,b
  4908   001A74  0101               	movlb	1	; () banked
  4909   001A76  5982               	subwfb	(___fldiv@rem+2)& (0+255),w,b
  4910   001A78  0100               	movlb	0	; () banked
  4911   001A7A  51BF               	movf	(___fldiv@a+3)& (0+255),w,b
  4912   001A7C  0101               	movlb	1	; () banked
  4913   001A7E  5983               	subwfb	(___fldiv@rem+3)& (0+255),w,b
  4914   001A80  A0D8               	btfss	status,0,c
  4915   001A82  EF45  F00D         	goto	u5471
  4916   001A86  EF47  F00D         	goto	u5470
  4917   001A8A                     u5471:
  4918   001A8A  EF58  F00D         	goto	l4222
  4919   001A8E                     u5470:
  4920   001A8E                     
  4921                           ; BSR set to: 1
  4922   001A8E  8D8A               	bsf	(___fldiv@grs+3)& (0+255),6,b
  4923   001A90                     
  4924                           ; BSR set to: 1
  4925   001A90  0100               	movlb	0	; () banked
  4926   001A92  51BC               	movf	___fldiv@a& (0+255),w,b
  4927   001A94  0101               	movlb	1	; () banked
  4928   001A96  5F80               	subwf	___fldiv@rem& (0+255),f,b
  4929   001A98  0100               	movlb	0	; () banked
  4930   001A9A  51BD               	movf	(___fldiv@a+1)& (0+255),w,b
  4931   001A9C  0101               	movlb	1	; () banked
  4932   001A9E  5B81               	subwfb	(___fldiv@rem+1)& (0+255),f,b
  4933   001AA0  0100               	movlb	0	; () banked
  4934   001AA2  51BE               	movf	(___fldiv@a+2)& (0+255),w,b
  4935   001AA4  0101               	movlb	1	; () banked
  4936   001AA6  5B82               	subwfb	(___fldiv@rem+2)& (0+255),f,b
  4937   001AA8  0100               	movlb	0	; () banked
  4938   001AAA  51BF               	movf	(___fldiv@a+3)& (0+255),w,b
  4939   001AAC  0101               	movlb	1	; () banked
  4940   001AAE  5B83               	subwfb	(___fldiv@rem+3)& (0+255),f,b
  4941   001AB0                     l4222:
  4942                           
  4943                           ; BSR set to: 1
  4944   001AB0  2B8C               	incf	___fldiv@aexp& (0+255),f,b
  4945   001AB2                     l904:
  4946                           
  4947                           ; BSR set to: 1
  4948   001AB2  0E19               	movlw	25
  4949   001AB4  658C               	cpfsgt	___fldiv@aexp& (0+255),b
  4950   001AB6  EF5F  F00D         	goto	u5481
  4951   001ABA  EF61  F00D         	goto	u5480
  4952   001ABE                     u5481:
  4953   001ABE  EF0D  F00D         	goto	l4208
  4954   001AC2                     u5480:
  4955   001AC2                     
  4956                           ; BSR set to: 1
  4957   001AC2  5180               	movf	___fldiv@rem& (0+255),w,b
  4958   001AC4  1181               	iorwf	(___fldiv@rem+1)& (0+255),w,b
  4959   001AC6  1182               	iorwf	(___fldiv@rem+2)& (0+255),w,b
  4960   001AC8  1183               	iorwf	(___fldiv@rem+3)& (0+255),w,b
  4961   001ACA  B4D8               	btfsc	status,2,c
  4962   001ACC  EF6A  F00D         	goto	u5491
  4963   001AD0  EF6C  F00D         	goto	u5490
  4964   001AD4                     u5491:
  4965   001AD4  EF87  F00D         	goto	l4234
  4966   001AD8                     u5490:
  4967   001AD8                     
  4968                           ; BSR set to: 1
  4969   001AD8  8187               	bsf	___fldiv@grs& (0+255),0,b
  4970   001ADA  EF87  F00D         	goto	l4234
  4971   001ADE                     l4228:
  4972                           
  4973                           ; BSR set to: 0
  4974   001ADE  90D8               	bcf	status,0,c
  4975   001AE0  37B8               	rlcf	___fldiv@b& (0+255),f,b
  4976   001AE2  37B9               	rlcf	(___fldiv@b+1)& (0+255),f,b
  4977   001AE4  37BA               	rlcf	(___fldiv@b+2)& (0+255),f,b
  4978   001AE6  37BB               	rlcf	(___fldiv@b+3)& (0+255),f,b
  4979   001AE8                     
  4980                           ; BSR set to: 0
  4981   001AE8  0101               	movlb	1	; () banked
  4982   001AEA  AF8A               	btfss	(___fldiv@grs+3)& (0+255),7,b
  4983   001AEC  EF7A  F00D         	goto	u5501
  4984   001AF0  EF7C  F00D         	goto	u5500
  4985   001AF4                     u5501:
  4986   001AF4  EF7E  F00D         	goto	l913
  4987   001AF8                     u5500:
  4988   001AF8                     
  4989                           ; BSR set to: 1
  4990   001AF8  0100               	movlb	0	; () banked
  4991   001AFA  81B8               	bsf	___fldiv@b& (0+255),0,b
  4992   001AFC                     l913:
  4993   001AFC  0101               	movlb	1	; () banked
  4994   001AFE  90D8               	bcf	status,0,c
  4995   001B00  3787               	rlcf	___fldiv@grs& (0+255),f,b
  4996   001B02  3788               	rlcf	(___fldiv@grs+1)& (0+255),f,b
  4997   001B04  3789               	rlcf	(___fldiv@grs+2)& (0+255),f,b
  4998   001B06  378A               	rlcf	(___fldiv@grs+3)& (0+255),f,b
  4999   001B08  0785               	decf	___fldiv@new_exp& (0+255),f,b
  5000   001B0A  A0D8               	btfss	status,0,c
  5001   001B0C  0786               	decf	(___fldiv@new_exp+1)& (0+255),f,b
  5002   001B0E                     l4234:
  5003                           
  5004                           ; BSR set to: 1
  5005   001B0E  0100               	movlb	0	; () banked
  5006   001B10  AFBA               	btfss	(___fldiv@b+2)& (0+255),7,b
  5007   001B12  EF8D  F00D         	goto	u5511
  5008   001B16  EF8F  F00D         	goto	u5510
  5009   001B1A                     u5511:
  5010   001B1A  EF6F  F00D         	goto	l4228
  5011   001B1E                     u5510:
  5012   001B1E                     
  5013                           ; BSR set to: 0
  5014   001B1E  0101               	movlb	1	; () banked
  5015   001B20  6B8C               	clrf	___fldiv@aexp& (0+255),b
  5016   001B22  AF8A               	btfss	(___fldiv@grs+3)& (0+255),7,b
  5017   001B24  EF96  F00D         	goto	u5521
  5018   001B28  EF98  F00D         	goto	u5520
  5019   001B2C                     u5521:
  5020   001B2C  EFC4  F00D         	goto	l915
  5021   001B30                     u5520:
  5022   001B30                     
  5023                           ; BSR set to: 1
  5024   001B30  0EFF               	movlw	255
  5025   001B32  1587               	andwf	___fldiv@grs& (0+255),w,b
  5026   001B34  0100               	movlb	0	; () banked
  5027   001B36  6FC0               	movwf	??___fldiv& (0+255),b
  5028   001B38  0EFF               	movlw	255
  5029   001B3A  0101               	movlb	1	; () banked
  5030   001B3C  1588               	andwf	(___fldiv@grs+1)& (0+255),w,b
  5031   001B3E  0100               	movlb	0	; () banked
  5032   001B40  6FC1               	movwf	(??___fldiv+1)& (0+255),b
  5033   001B42  0EFF               	movlw	255
  5034   001B44  0101               	movlb	1	; () banked
  5035   001B46  1589               	andwf	(___fldiv@grs+2)& (0+255),w,b
  5036   001B48  0100               	movlb	0	; () banked
  5037   001B4A  6FC2               	movwf	(??___fldiv+2)& (0+255),b
  5038   001B4C  0E7F               	movlw	127
  5039   001B4E  0101               	movlb	1	; () banked
  5040   001B50  158A               	andwf	(___fldiv@grs+3)& (0+255),w,b
  5041   001B52  0100               	movlb	0	; () banked
  5042   001B54  6FC3               	movwf	(??___fldiv+3)& (0+255),b
  5043   001B56  51C0               	movf	??___fldiv& (0+255),w,b
  5044   001B58  11C1               	iorwf	(??___fldiv+1)& (0+255),w,b
  5045   001B5A  11C2               	iorwf	(??___fldiv+2)& (0+255),w,b
  5046   001B5C  11C3               	iorwf	(??___fldiv+3)& (0+255),w,b
  5047   001B5E  B4D8               	btfsc	status,2,c
  5048   001B60  EFB4  F00D         	goto	u5531
  5049   001B64  EFB6  F00D         	goto	u5530
  5050   001B68                     u5531:
  5051   001B68  EFBB  F00D         	goto	l916
  5052   001B6C                     u5530:
  5053   001B6C                     l4238:
  5054                           
  5055                           ; BSR set to: 0
  5056   001B6C  0E01               	movlw	1
  5057   001B6E  0101               	movlb	1	; () banked
  5058   001B70  6F8C               	movwf	___fldiv@aexp& (0+255),b
  5059   001B72  EFC4  F00D         	goto	l915
  5060   001B76                     l916:
  5061                           
  5062                           ; BSR set to: 0
  5063   001B76  A1B8               	btfss	___fldiv@b& (0+255),0,b
  5064   001B78  EFC0  F00D         	goto	u5541
  5065   001B7C  EFC2  F00D         	goto	u5540
  5066   001B80                     u5541:
  5067   001B80  EFC4  F00D         	goto	l915
  5068   001B84                     u5540:
  5069   001B84  EFB6  F00D         	goto	l4238
  5070   001B88                     l915:
  5071   001B88  0101               	movlb	1	; () banked
  5072   001B8A  518C               	movf	___fldiv@aexp& (0+255),w,b
  5073   001B8C  B4D8               	btfsc	status,2,c
  5074   001B8E  EFCB  F00D         	goto	u5551
  5075   001B92  EFCD  F00D         	goto	u5550
  5076   001B96                     u5551:
  5077   001B96  EFF3  F00D         	goto	l4250
  5078   001B9A                     u5550:
  5079   001B9A                     
  5080                           ; BSR set to: 1
  5081   001B9A  0E01               	movlw	1
  5082   001B9C  0100               	movlb	0	; () banked
  5083   001B9E  27B8               	addwf	___fldiv@b& (0+255),f,b
  5084   001BA0  0E00               	movlw	0
  5085   001BA2  23B9               	addwfc	(___fldiv@b+1)& (0+255),f,b
  5086   001BA4  23BA               	addwfc	(___fldiv@b+2)& (0+255),f,b
  5087   001BA6  23BB               	addwfc	(___fldiv@b+3)& (0+255),f,b
  5088   001BA8                     
  5089                           ; BSR set to: 0
  5090   001BA8  A1BB               	btfss	(___fldiv@b+3)& (0+255),0,b
  5091   001BAA  EFD9  F00D         	goto	u5561
  5092   001BAE  EFDB  F00D         	goto	u5560
  5093   001BB2                     u5561:
  5094   001BB2  EFF3  F00D         	goto	l4250
  5095   001BB6                     u5560:
  5096   001BB6                     
  5097                           ; BSR set to: 0
  5098   001BB6  C0B8  F0C0         	movff	___fldiv@b,??___fldiv
  5099   001BBA  C0B9  F0C1         	movff	___fldiv@b+1,??___fldiv+1
  5100   001BBE  C0BA  F0C2         	movff	___fldiv@b+2,??___fldiv+2
  5101   001BC2  C0BB  F0C3         	movff	___fldiv@b+3,??___fldiv+3
  5102   001BC6  35C3               	rlcf	(??___fldiv+3)& (0+255),w,b
  5103   001BC8  33C3               	rrcf	(??___fldiv+3)& (0+255),f,b
  5104   001BCA  33C2               	rrcf	(??___fldiv+2)& (0+255),f,b
  5105   001BCC  33C1               	rrcf	(??___fldiv+1)& (0+255),f,b
  5106   001BCE  33C0               	rrcf	??___fldiv& (0+255),f,b
  5107   001BD0  C0C0  F0B8         	movff	??___fldiv,___fldiv@b
  5108   001BD4  C0C1  F0B9         	movff	??___fldiv+1,___fldiv@b+1
  5109   001BD8  C0C2  F0BA         	movff	??___fldiv+2,___fldiv@b+2
  5110   001BDC  C0C3  F0BB         	movff	??___fldiv+3,___fldiv@b+3
  5111   001BE0                     
  5112                           ; BSR set to: 0
  5113   001BE0  0101               	movlb	1	; () banked
  5114   001BE2  4B85               	infsnz	___fldiv@new_exp& (0+255),f,b
  5115   001BE4  2B86               	incf	(___fldiv@new_exp+1)& (0+255),f,b
  5116   001BE6                     l4250:
  5117   001BE6  0101               	movlb	1	; () banked
  5118   001BE8  BF86               	btfsc	(___fldiv@new_exp+1)& (0+255),7,b
  5119   001BEA  EFFF  F00D         	goto	u5571
  5120   001BEE  5186               	movf	(___fldiv@new_exp+1)& (0+255),w,b
  5121   001BF0  E108               	bnz	u5570
  5122   001BF2  2985               	incf	___fldiv@new_exp& (0+255),w,b
  5123   001BF4  A0D8               	btfss	status,0,c
  5124   001BF6  EFFF  F00D         	goto	u5571
  5125   001BFA  EF01  F00E         	goto	u5570
  5126   001BFE                     u5571:
  5127   001BFE  EF0D  F00E         	goto	l4254
  5128   001C02                     u5570:
  5129   001C02                     
  5130                           ; BSR set to: 1
  5131   001C02  0E00               	movlw	0
  5132   001C04  6F86               	movwf	(___fldiv@new_exp+1)& (0+255),b
  5133   001C06  6985               	setf	___fldiv@new_exp& (0+255),b
  5134   001C08  0E00               	movlw	0
  5135   001C0A  0100               	movlb	0	; () banked
  5136   001C0C  6FB8               	movwf	___fldiv@b& (0+255),b
  5137   001C0E  0E00               	movlw	0
  5138   001C10  6FB9               	movwf	(___fldiv@b+1)& (0+255),b
  5139   001C12  0E00               	movlw	0
  5140   001C14  6FBA               	movwf	(___fldiv@b+2)& (0+255),b
  5141   001C16  0E00               	movlw	0
  5142   001C18  6FBB               	movwf	(___fldiv@b+3)& (0+255),b
  5143   001C1A                     l4254:
  5144   001C1A  0101               	movlb	1	; () banked
  5145   001C1C  BF86               	btfsc	(___fldiv@new_exp+1)& (0+255),7,b
  5146   001C1E  EF1B  F00E         	goto	u5580
  5147   001C22  5186               	movf	(___fldiv@new_exp+1)& (0+255),w,b
  5148   001C24  E106               	bnz	u5581
  5149   001C26  0585               	decf	___fldiv@new_exp& (0+255),w,b
  5150   001C28  B0D8               	btfsc	status,0,c
  5151   001C2A  EF19  F00E         	goto	u5581
  5152   001C2E  EF1B  F00E         	goto	u5580
  5153   001C32                     u5581:
  5154   001C32  EF2A  F00E         	goto	l4260
  5155   001C36                     u5580:
  5156   001C36                     
  5157                           ; BSR set to: 1
  5158   001C36  0E00               	movlw	0
  5159   001C38  6F86               	movwf	(___fldiv@new_exp+1)& (0+255),b
  5160   001C3A  0E00               	movlw	0
  5161   001C3C  6F85               	movwf	___fldiv@new_exp& (0+255),b
  5162   001C3E  0E00               	movlw	0
  5163   001C40  0100               	movlb	0	; () banked
  5164   001C42  6FB8               	movwf	___fldiv@b& (0+255),b
  5165   001C44  0E00               	movlw	0
  5166   001C46  6FB9               	movwf	(___fldiv@b+1)& (0+255),b
  5167   001C48  0E00               	movlw	0
  5168   001C4A  6FBA               	movwf	(___fldiv@b+2)& (0+255),b
  5169   001C4C  0E00               	movlw	0
  5170   001C4E  6FBB               	movwf	(___fldiv@b+3)& (0+255),b
  5171   001C50                     
  5172                           ; BSR set to: 0
  5173   001C50  0101               	movlb	1	; () banked
  5174   001C52  6B84               	clrf	___fldiv@sign& (0+255),b
  5175   001C54                     l4260:
  5176                           
  5177                           ; BSR set to: 1
  5178   001C54  C185  F18B         	movff	___fldiv@new_exp,___fldiv@bexp
  5179   001C58                     
  5180                           ; BSR set to: 1
  5181   001C58  A18B               	btfss	___fldiv@bexp& (0+255),0,b
  5182   001C5A  EF31  F00E         	goto	u5591
  5183   001C5E  EF33  F00E         	goto	u5590
  5184   001C62                     u5591:
  5185   001C62  EF37  F00E         	goto	l4266
  5186   001C66                     u5590:
  5187   001C66                     
  5188                           ; BSR set to: 1
  5189   001C66  0100               	movlb	0	; () banked
  5190   001C68  8FBA               	bsf	(___fldiv@b+2)& (0+255),7,b
  5191   001C6A  EF39  F00E         	goto	l4268
  5192   001C6E                     l4266:
  5193                           
  5194                           ; BSR set to: 1
  5195   001C6E  0100               	movlb	0	; () banked
  5196   001C70  9FBA               	bcf	(___fldiv@b+2)& (0+255),7,b
  5197   001C72                     l4268:
  5198                           
  5199                           ; BSR set to: 0
  5200   001C72  0101               	movlb	1	; () banked
  5201   001C74  90D8               	bcf	status,0,c
  5202   001C76  318B               	rrcf	___fldiv@bexp& (0+255),w,b
  5203   001C78  0100               	movlb	0	; () banked
  5204   001C7A  6FBB               	movwf	(___fldiv@b+3)& (0+255),b
  5205   001C7C  EFBD  F00C         	goto	l4184
  5206   001C80                     l902:
  5207                           
  5208                           ; BSR set to: 0
  5209   001C80  0012               	return		;funcret
  5210   001C82                     __end_of___fldiv:
  5211                           	callstack 0
  5212                           
  5213 ;; *************** function ___fladd *****************
  5214 ;; Defined at:
  5215 ;;		line 10 in file "/Applications/microchip/xc8/v2.50/pic/sources/c99/common/sprcadd.c"
  5216 ;; Parameters:    Size  Location     Type
  5217 ;;  b               4   68[BANK0 ] unsigned char 
  5218 ;;  a               4   72[BANK0 ] unsigned char 
  5219 ;; Auto vars:     Size  Location     Type
  5220 ;;  grs             1   20[BANK1 ] unsigned char 
  5221 ;;  bexp            1   19[BANK1 ] unsigned char 
  5222 ;;  aexp            1   18[BANK1 ] unsigned char 
  5223 ;;  signs           1   17[BANK1 ] unsigned char 
  5224 ;; Return value:  Size  Location     Type
  5225 ;;                  4   68[BANK0 ] unsigned char 
  5226 ;; Registers used:
  5227 ;;		wreg, status,2, status,0
  5228 ;; Tracked objects:
  5229 ;;		On entry : 0/0
  5230 ;;		On exit  : 0/0
  5231 ;;		Unchanged: 0/0
  5232 ;; Data sizes:     COMRAM   BANK0   BANK1   BANK2   BANK3   BANK4   BANK5
  5233 ;;      Params:         0       8       0       0       0       0       0
  5234 ;;      Locals:         0       0       4       0       0       0       0
  5235 ;;      Temps:          0       0       4       0       0       0       0
  5236 ;;      Totals:         0       8       8       0       0       0       0
  5237 ;;Total ram usage:       16 bytes
  5238 ;; Hardware stack levels used: 1
  5239 ;; Hardware stack levels required when called: 4
  5240 ;; This function calls:
  5241 ;;		Nothing
  5242 ;; This function is called by:
  5243 ;;		_PWMSetPeriod
  5244 ;;		_Timer2Initialize
  5245 ;;		_MotorRotateWithDelay
  5246 ;;		_MotorRotateDegree
  5247 ;;		_MotorRotateDegreeWithDelay
  5248 ;;		_Timer2SetPeriod
  5249 ;; This function uses a non-reentrant model
  5250 ;;
  5251                           
  5252                           	psect	text16
  5253   000606                     __ptext16:
  5254                           	callstack 0
  5255   000606                     ___fladd:
  5256                           	callstack 23
  5257   000606  0100               	movlb	0	; () banked
  5258   000608  51C7               	movf	(___fladd@b+3)& (0+255),w,b
  5259   00060A  0B80               	andlw	128
  5260   00060C  0101               	movlb	1	; () banked
  5261   00060E  6F91               	movwf	___fladd@signs& (0+255),b
  5262   000610  0100               	movlb	0	; () banked
  5263   000612  51C7               	movf	(___fladd@b+3)& (0+255),w,b
  5264   000614  25C7               	addwf	(___fladd@b+3)& (0+255),w,b
  5265   000616  0101               	movlb	1	; () banked
  5266   000618  6F93               	movwf	___fladd@bexp& (0+255),b
  5267   00061A                     
  5268                           ; BSR set to: 1
  5269   00061A  0100               	movlb	0	; () banked
  5270   00061C  AFC6               	btfss	(___fladd@b+2)& (0+255),7,b
  5271   00061E  EF13  F003         	goto	u4981
  5272   000622  EF15  F003         	goto	u4980
  5273   000626                     u4981:
  5274   000626  EF17  F003         	goto	l3952
  5275   00062A                     u4980:
  5276   00062A                     
  5277                           ; BSR set to: 0
  5278   00062A  0101               	movlb	1	; () banked
  5279   00062C  8193               	bsf	___fladd@bexp& (0+255),0,b
  5280   00062E                     l3952:
  5281   00062E  0101               	movlb	1	; () banked
  5282   000630  5193               	movf	___fladd@bexp& (0+255),w,b
  5283   000632  B4D8               	btfsc	status,2,c
  5284   000634  EF1E  F003         	goto	u4991
  5285   000638  EF20  F003         	goto	u4990
  5286   00063C                     u4991:
  5287   00063C  EF36  F003         	goto	l3962
  5288   000640                     u4990:
  5289   000640                     
  5290                           ; BSR set to: 1
  5291   000640  2993               	incf	___fladd@bexp& (0+255),w,b
  5292   000642  A4D8               	btfss	status,2,c
  5293   000644  EF26  F003         	goto	u5001
  5294   000648  EF28  F003         	goto	u5000
  5295   00064C                     u5001:
  5296   00064C  EF31  F003         	goto	l3958
  5297   000650                     u5000:
  5298   000650                     
  5299                           ; BSR set to: 1
  5300   000650  0E00               	movlw	0
  5301   000652  0100               	movlb	0	; () banked
  5302   000654  6FC4               	movwf	___fladd@b& (0+255),b
  5303   000656  0E00               	movlw	0
  5304   000658  6FC5               	movwf	(___fladd@b+1)& (0+255),b
  5305   00065A  0E00               	movlw	0
  5306   00065C  6FC6               	movwf	(___fladd@b+2)& (0+255),b
  5307   00065E  0E00               	movlw	0
  5308   000660  6FC7               	movwf	(___fladd@b+3)& (0+255),b
  5309   000662                     l3958:
  5310   000662  0100               	movlb	0	; () banked
  5311   000664  8FC6               	bsf	(___fladd@b+2)& (0+255),7,b
  5312   000666                     
  5313                           ; BSR set to: 0
  5314   000666  6BC7               	clrf	(___fladd@b+3)& (0+255),b
  5315   000668  EF3F  F003         	goto	l3964
  5316   00066C                     l3962:
  5317                           
  5318                           ; BSR set to: 1
  5319   00066C  0E00               	movlw	0
  5320   00066E  0100               	movlb	0	; () banked
  5321   000670  6FC4               	movwf	___fladd@b& (0+255),b
  5322   000672  0E00               	movlw	0
  5323   000674  6FC5               	movwf	(___fladd@b+1)& (0+255),b
  5324   000676  0E00               	movlw	0
  5325   000678  6FC6               	movwf	(___fladd@b+2)& (0+255),b
  5326   00067A  0E00               	movlw	0
  5327   00067C  6FC7               	movwf	(___fladd@b+3)& (0+255),b
  5328   00067E                     l3964:
  5329                           
  5330                           ; BSR set to: 0
  5331   00067E  51CB               	movf	(___fladd@a+3)& (0+255),w,b
  5332   000680  0B80               	andlw	128
  5333   000682  0101               	movlb	1	; () banked
  5334   000684  6F92               	movwf	___fladd@aexp& (0+255),b
  5335   000686                     
  5336                           ; BSR set to: 1
  5337   000686  5191               	movf	___fladd@signs& (0+255),w,b
  5338   000688  1992               	xorwf	___fladd@aexp& (0+255),w,b
  5339   00068A  B4D8               	btfsc	status,2,c
  5340   00068C  EF4A  F003         	goto	u5011
  5341   000690  EF4C  F003         	goto	u5010
  5342   000694                     u5011:
  5343   000694  EF4D  F003         	goto	l3970
  5344   000698                     u5010:
  5345   000698                     
  5346                           ; BSR set to: 1
  5347   000698  8D91               	bsf	___fladd@signs& (0+255),6,b
  5348   00069A                     l3970:
  5349                           
  5350                           ; BSR set to: 1
  5351   00069A  0100               	movlb	0	; () banked
  5352   00069C  51CB               	movf	(___fladd@a+3)& (0+255),w,b
  5353   00069E  25CB               	addwf	(___fladd@a+3)& (0+255),w,b
  5354   0006A0  0101               	movlb	1	; () banked
  5355   0006A2  6F92               	movwf	___fladd@aexp& (0+255),b
  5356   0006A4                     
  5357                           ; BSR set to: 1
  5358   0006A4  0100               	movlb	0	; () banked
  5359   0006A6  AFCA               	btfss	(___fladd@a+2)& (0+255),7,b
  5360   0006A8  EF58  F003         	goto	u5021
  5361   0006AC  EF5A  F003         	goto	u5020
  5362   0006B0                     u5021:
  5363   0006B0  EF5C  F003         	goto	l3976
  5364   0006B4                     u5020:
  5365   0006B4                     
  5366                           ; BSR set to: 0
  5367   0006B4  0101               	movlb	1	; () banked
  5368   0006B6  8192               	bsf	___fladd@aexp& (0+255),0,b
  5369   0006B8                     l3976:
  5370   0006B8  0101               	movlb	1	; () banked
  5371   0006BA  5192               	movf	___fladd@aexp& (0+255),w,b
  5372   0006BC  B4D8               	btfsc	status,2,c
  5373   0006BE  EF63  F003         	goto	u5031
  5374   0006C2  EF65  F003         	goto	u5030
  5375   0006C6                     u5031:
  5376   0006C6  EF7B  F003         	goto	l3986
  5377   0006CA                     u5030:
  5378   0006CA                     
  5379                           ; BSR set to: 1
  5380   0006CA  2992               	incf	___fladd@aexp& (0+255),w,b
  5381   0006CC  A4D8               	btfss	status,2,c
  5382   0006CE  EF6B  F003         	goto	u5041
  5383   0006D2  EF6D  F003         	goto	u5040
  5384   0006D6                     u5041:
  5385   0006D6  EF76  F003         	goto	l3982
  5386   0006DA                     u5040:
  5387   0006DA                     
  5388                           ; BSR set to: 1
  5389   0006DA  0E00               	movlw	0
  5390   0006DC  0100               	movlb	0	; () banked
  5391   0006DE  6FC8               	movwf	___fladd@a& (0+255),b
  5392   0006E0  0E00               	movlw	0
  5393   0006E2  6FC9               	movwf	(___fladd@a+1)& (0+255),b
  5394   0006E4  0E00               	movlw	0
  5395   0006E6  6FCA               	movwf	(___fladd@a+2)& (0+255),b
  5396   0006E8  0E00               	movlw	0
  5397   0006EA  6FCB               	movwf	(___fladd@a+3)& (0+255),b
  5398   0006EC                     l3982:
  5399   0006EC  0100               	movlb	0	; () banked
  5400   0006EE  8FCA               	bsf	(___fladd@a+2)& (0+255),7,b
  5401   0006F0                     
  5402                           ; BSR set to: 0
  5403   0006F0  6BCB               	clrf	(___fladd@a+3)& (0+255),b
  5404   0006F2  EF84  F003         	goto	l3988
  5405   0006F6                     l3986:
  5406                           
  5407                           ; BSR set to: 1
  5408   0006F6  0E00               	movlw	0
  5409   0006F8  0100               	movlb	0	; () banked
  5410   0006FA  6FC8               	movwf	___fladd@a& (0+255),b
  5411   0006FC  0E00               	movlw	0
  5412   0006FE  6FC9               	movwf	(___fladd@a+1)& (0+255),b
  5413   000700  0E00               	movlw	0
  5414   000702  6FCA               	movwf	(___fladd@a+2)& (0+255),b
  5415   000704  0E00               	movlw	0
  5416   000706  6FCB               	movwf	(___fladd@a+3)& (0+255),b
  5417   000708                     l3988:
  5418                           
  5419                           ; BSR set to: 0
  5420   000708  0101               	movlb	1	; () banked
  5421   00070A  5193               	movf	___fladd@bexp& (0+255),w,b
  5422   00070C  5D92               	subwf	___fladd@aexp& (0+255),w,b
  5423   00070E  B0D8               	btfsc	status,0,c
  5424   000710  EF8C  F003         	goto	u5051
  5425   000714  EF8E  F003         	goto	u5050
  5426   000718                     u5051:
  5427   000718  EFB5  F003         	goto	l4024
  5428   00071C                     u5050:
  5429   00071C                     
  5430                           ; BSR set to: 1
  5431   00071C  AD91               	btfss	___fladd@signs& (0+255),6,b
  5432   00071E  EF93  F003         	goto	u5061
  5433   000722  EF95  F003         	goto	u5060
  5434   000726                     u5061:
  5435   000726  EF97  F003         	goto	l3994
  5436   00072A                     u5060:
  5437   00072A                     
  5438                           ; BSR set to: 1
  5439   00072A  0E80               	movlw	128
  5440   00072C  1B91               	xorwf	___fladd@signs& (0+255),f,b
  5441   00072E                     l3994:
  5442                           
  5443                           ; BSR set to: 1
  5444   00072E  C193  F194         	movff	___fladd@bexp,___fladd@grs
  5445   000732                     
  5446                           ; BSR set to: 1
  5447   000732  C192  F193         	movff	___fladd@aexp,___fladd@bexp
  5448   000736                     
  5449                           ; BSR set to: 1
  5450   000736  C194  F192         	movff	___fladd@grs,___fladd@aexp
  5451   00073A                     
  5452                           ; BSR set to: 1
  5453   00073A  C0C4  F194         	movff	___fladd@b,___fladd@grs
  5454   00073E                     
  5455                           ; BSR set to: 1
  5456   00073E  C0C8  F0C4         	movff	___fladd@a,___fladd@b
  5457   000742                     
  5458                           ; BSR set to: 1
  5459   000742  C194  F0C8         	movff	___fladd@grs,___fladd@a
  5460   000746                     
  5461                           ; BSR set to: 1
  5462   000746  C0C5  F194         	movff	___fladd@b+1,___fladd@grs
  5463   00074A                     
  5464                           ; BSR set to: 1
  5465   00074A  C0C9  F0C5         	movff	___fladd@a+1,___fladd@b+1
  5466   00074E                     
  5467                           ; BSR set to: 1
  5468   00074E  C194  F0C9         	movff	___fladd@grs,___fladd@a+1
  5469   000752                     
  5470                           ; BSR set to: 1
  5471   000752  C0C6  F194         	movff	___fladd@b+2,___fladd@grs
  5472   000756                     
  5473                           ; BSR set to: 1
  5474   000756  C0CA  F0C6         	movff	___fladd@a+2,___fladd@b+2
  5475   00075A                     
  5476                           ; BSR set to: 1
  5477   00075A  C194  F0CA         	movff	___fladd@grs,___fladd@a+2
  5478   00075E                     
  5479                           ; BSR set to: 1
  5480   00075E  C0C7  F194         	movff	___fladd@b+3,___fladd@grs
  5481   000762                     
  5482                           ; BSR set to: 1
  5483   000762  C0CB  F0C7         	movff	___fladd@a+3,___fladd@b+3
  5484   000766                     
  5485                           ; BSR set to: 1
  5486   000766  C194  F0CB         	movff	___fladd@grs,___fladd@a+3
  5487   00076A                     l4024:
  5488                           
  5489                           ; BSR set to: 1
  5490   00076A  6B94               	clrf	___fladd@grs& (0+255),b
  5491   00076C  5193               	movf	___fladd@bexp& (0+255),w,b
  5492   00076E  C192  F18D         	movff	___fladd@aexp,??___fladd
  5493   000772  6B8E               	clrf	(??___fladd+1)& (0+255),b
  5494   000774  5F8D               	subwf	??___fladd& (0+255),f,b
  5495   000776  0E00               	movlw	0
  5496   000778  5B8E               	subwfb	(??___fladd+1)& (0+255),f,b
  5497   00077A  BF8E               	btfsc	(??___fladd+1)& (0+255),7,b
  5498   00077C  EFC9  F003         	goto	u5071
  5499   000780  518E               	movf	(??___fladd+1)& (0+255),w,b
  5500   000782  E109               	bnz	u5070
  5501   000784  0E1A               	movlw	26
  5502   000786  5D8D               	subwf	??___fladd& (0+255),w,b
  5503   000788  A0D8               	btfss	status,0,c
  5504   00078A  EFC9  F003         	goto	u5071
  5505   00078E  EFCB  F003         	goto	u5070
  5506   000792                     u5071:
  5507   000792  EF09  F004         	goto	l849
  5508   000796                     u5070:
  5509   000796                     
  5510                           ; BSR set to: 1
  5511   000796  0100               	movlb	0	; () banked
  5512   000798  51C4               	movf	___fladd@b& (0+255),w,b
  5513   00079A  11C5               	iorwf	(___fladd@b+1)& (0+255),w,b
  5514   00079C  11C6               	iorwf	(___fladd@b+2)& (0+255),w,b
  5515   00079E  11C7               	iorwf	(___fladd@b+3)& (0+255),w,b
  5516   0007A0  A4D8               	btfss	status,2,c
  5517   0007A2  EFD5  F003         	goto	u5081
  5518   0007A6  EFD8  F003         	goto	u5080
  5519   0007AA                     u5081:
  5520   0007AA  0E01               	movlw	1
  5521   0007AC  EFD9  F003         	goto	u5090
  5522   0007B0                     u5080:
  5523   0007B0  0E00               	movlw	0
  5524   0007B2                     u5090:
  5525   0007B2  0101               	movlb	1	; () banked
  5526   0007B4  6F94               	movwf	___fladd@grs& (0+255),b
  5527   0007B6                     
  5528                           ; BSR set to: 1
  5529   0007B6  0E00               	movlw	0
  5530   0007B8  0100               	movlb	0	; () banked
  5531   0007BA  6FC4               	movwf	___fladd@b& (0+255),b
  5532   0007BC  0E00               	movlw	0
  5533   0007BE  6FC5               	movwf	(___fladd@b+1)& (0+255),b
  5534   0007C0  0E00               	movlw	0
  5535   0007C2  6FC6               	movwf	(___fladd@b+2)& (0+255),b
  5536   0007C4  0E00               	movlw	0
  5537   0007C6  6FC7               	movwf	(___fladd@b+3)& (0+255),b
  5538   0007C8                     
  5539                           ; BSR set to: 0
  5540   0007C8  C192  F193         	movff	___fladd@aexp,___fladd@bexp
  5541   0007CC  EF12  F004         	goto	l848
  5542   0007D0                     l850:
  5543                           
  5544                           ; BSR set to: 1
  5545   0007D0  A194               	btfss	___fladd@grs& (0+255),0,b
  5546   0007D2  EFED  F003         	goto	u5101
  5547   0007D6  EFEF  F003         	goto	u5100
  5548   0007DA                     u5101:
  5549   0007DA  EFF5  F003         	goto	l4034
  5550   0007DE                     u5100:
  5551   0007DE                     
  5552                           ; BSR set to: 1
  5553   0007DE  90D8               	bcf	status,0,c
  5554   0007E0  3194               	rrcf	___fladd@grs& (0+255),w,b
  5555   0007E2  0901               	iorlw	1
  5556   0007E4  6F94               	movwf	___fladd@grs& (0+255),b
  5557   0007E6  EFF7  F003         	goto	l4036
  5558   0007EA                     l4034:
  5559                           
  5560                           ; BSR set to: 1
  5561   0007EA  90D8               	bcf	status,0,c
  5562   0007EC  3394               	rrcf	___fladd@grs& (0+255),f,b
  5563   0007EE                     l4036:
  5564                           
  5565                           ; BSR set to: 1
  5566   0007EE  0100               	movlb	0	; () banked
  5567   0007F0  A1C4               	btfss	___fladd@b& (0+255),0,b
  5568   0007F2  EFFD  F003         	goto	u5111
  5569   0007F6  EFFF  F003         	goto	u5110
  5570   0007FA                     u5111:
  5571   0007FA  EF01  F004         	goto	l4040
  5572   0007FE                     u5110:
  5573   0007FE                     
  5574                           ; BSR set to: 0
  5575   0007FE  0101               	movlb	1	; () banked
  5576   000800  8F94               	bsf	___fladd@grs& (0+255),7,b
  5577   000802                     l4040:
  5578   000802  0100               	movlb	0	; () banked
  5579   000804  35C7               	rlcf	(___fladd@b+3)& (0+255),w,b
  5580   000806  33C7               	rrcf	(___fladd@b+3)& (0+255),f,b
  5581   000808  33C6               	rrcf	(___fladd@b+2)& (0+255),f,b
  5582   00080A  33C5               	rrcf	(___fladd@b+1)& (0+255),f,b
  5583   00080C  33C4               	rrcf	___fladd@b& (0+255),f,b
  5584   00080E                     
  5585                           ; BSR set to: 0
  5586   00080E  0101               	movlb	1	; () banked
  5587   000810  2B93               	incf	___fladd@bexp& (0+255),f,b
  5588   000812                     l849:
  5589                           
  5590                           ; BSR set to: 1
  5591   000812  5192               	movf	___fladd@aexp& (0+255),w,b
  5592   000814  5D93               	subwf	___fladd@bexp& (0+255),w,b
  5593   000816  A0D8               	btfss	status,0,c
  5594   000818  EF10  F004         	goto	u5121
  5595   00081C  EF12  F004         	goto	u5120
  5596   000820                     u5121:
  5597   000820  EFE8  F003         	goto	l850
  5598   000824                     u5120:
  5599   000824                     l848:
  5600   000824  0101               	movlb	1	; () banked
  5601   000826  BD91               	btfsc	___fladd@signs& (0+255),6,b
  5602   000828  EF18  F004         	goto	u5131
  5603   00082C  EF1A  F004         	goto	u5130
  5604   000830                     u5131:
  5605   000830  EF61  F004         	goto	l4068
  5606   000834                     u5130:
  5607   000834                     
  5608                           ; BSR set to: 1
  5609   000834  5193               	movf	___fladd@bexp& (0+255),w,b
  5610   000836  A4D8               	btfss	status,2,c
  5611   000838  EF20  F004         	goto	u5141
  5612   00083C  EF22  F004         	goto	u5140
  5613   000840                     u5141:
  5614   000840  EF2D  F004         	goto	l4050
  5615   000844                     u5140:
  5616   000844                     
  5617                           ; BSR set to: 1
  5618   000844  0E00               	movlw	0
  5619   000846  0100               	movlb	0	; () banked
  5620   000848  6FC4               	movwf	?___fladd& (0+255),b
  5621   00084A  0E00               	movlw	0
  5622   00084C  6FC5               	movwf	(?___fladd+1)& (0+255),b
  5623   00084E  0E00               	movlw	0
  5624   000850  6FC6               	movwf	(?___fladd+2)& (0+255),b
  5625   000852  0E00               	movlw	0
  5626   000854  6FC7               	movwf	(?___fladd+3)& (0+255),b
  5627   000856  EFAC  F005         	goto	l857
  5628   00085A                     l4050:
  5629                           
  5630                           ; BSR set to: 1
  5631   00085A  0100               	movlb	0	; () banked
  5632   00085C  51C8               	movf	___fladd@a& (0+255),w,b
  5633   00085E  27C4               	addwf	___fladd@b& (0+255),f,b
  5634   000860  51C9               	movf	(___fladd@a+1)& (0+255),w,b
  5635   000862  23C5               	addwfc	(___fladd@b+1)& (0+255),f,b
  5636   000864  51CA               	movf	(___fladd@a+2)& (0+255),w,b
  5637   000866  23C6               	addwfc	(___fladd@b+2)& (0+255),f,b
  5638   000868  51CB               	movf	(___fladd@a+3)& (0+255),w,b
  5639   00086A  23C7               	addwfc	(___fladd@b+3)& (0+255),f,b
  5640   00086C                     
  5641                           ; BSR set to: 0
  5642   00086C  A1C7               	btfss	(___fladd@b+3)& (0+255),0,b
  5643   00086E  EF3B  F004         	goto	u5151
  5644   000872  EF3D  F004         	goto	u5150
  5645   000876                     u5151:
  5646   000876  EF0B  F005         	goto	l862
  5647   00087A                     u5150:
  5648   00087A                     
  5649                           ; BSR set to: 0
  5650   00087A  0101               	movlb	1	; () banked
  5651   00087C  A194               	btfss	___fladd@grs& (0+255),0,b
  5652   00087E  EF43  F004         	goto	u5161
  5653   000882  EF45  F004         	goto	u5160
  5654   000886                     u5161:
  5655   000886  EF4B  F004         	goto	l4058
  5656   00088A                     u5160:
  5657   00088A                     
  5658                           ; BSR set to: 1
  5659   00088A  90D8               	bcf	status,0,c
  5660   00088C  3194               	rrcf	___fladd@grs& (0+255),w,b
  5661   00088E  0901               	iorlw	1
  5662   000890  6F94               	movwf	___fladd@grs& (0+255),b
  5663   000892  EF4D  F004         	goto	l4060
  5664   000896                     l4058:
  5665                           
  5666                           ; BSR set to: 1
  5667   000896  90D8               	bcf	status,0,c
  5668   000898  3394               	rrcf	___fladd@grs& (0+255),f,b
  5669   00089A                     l4060:
  5670                           
  5671                           ; BSR set to: 1
  5672   00089A  0100               	movlb	0	; () banked
  5673   00089C  A1C4               	btfss	___fladd@b& (0+255),0,b
  5674   00089E  EF53  F004         	goto	u5171
  5675   0008A2  EF55  F004         	goto	u5170
  5676   0008A6                     u5171:
  5677   0008A6  EF57  F004         	goto	l4064
  5678   0008AA                     u5170:
  5679   0008AA                     
  5680                           ; BSR set to: 0
  5681   0008AA  0101               	movlb	1	; () banked
  5682   0008AC  8F94               	bsf	___fladd@grs& (0+255),7,b
  5683   0008AE                     l4064:
  5684   0008AE  0100               	movlb	0	; () banked
  5685   0008B0  35C7               	rlcf	(___fladd@b+3)& (0+255),w,b
  5686   0008B2  33C7               	rrcf	(___fladd@b+3)& (0+255),f,b
  5687   0008B4  33C6               	rrcf	(___fladd@b+2)& (0+255),f,b
  5688   0008B6  33C5               	rrcf	(___fladd@b+1)& (0+255),f,b
  5689   0008B8  33C4               	rrcf	___fladd@b& (0+255),f,b
  5690   0008BA                     
  5691                           ; BSR set to: 0
  5692   0008BA  0101               	movlb	1	; () banked
  5693   0008BC  2B93               	incf	___fladd@bexp& (0+255),f,b
  5694   0008BE  EF0B  F005         	goto	l862
  5695   0008C2                     l4068:
  5696                           
  5697                           ; BSR set to: 1
  5698   0008C2  0100               	movlb	0	; () banked
  5699   0008C4  51C8               	movf	___fladd@a& (0+255),w,b
  5700   0008C6  5DC4               	subwf	___fladd@b& (0+255),w,b
  5701   0008C8  51C9               	movf	(___fladd@a+1)& (0+255),w,b
  5702   0008CA  59C5               	subwfb	(___fladd@b+1)& (0+255),w,b
  5703   0008CC  51CA               	movf	(___fladd@a+2)& (0+255),w,b
  5704   0008CE  59C6               	subwfb	(___fladd@b+2)& (0+255),w,b
  5705   0008D0  51C7               	movf	(___fladd@b+3)& (0+255),w,b
  5706   0008D2  0A80               	xorlw	128
  5707   0008D4  0101               	movlb	1	; () banked
  5708   0008D6  6F8D               	movwf	??___fladd& (0+255),b
  5709   0008D8  0100               	movlb	0	; () banked
  5710   0008DA  51CB               	movf	(___fladd@a+3)& (0+255),w,b
  5711   0008DC  0A80               	xorlw	128
  5712   0008DE  0101               	movlb	1	; () banked
  5713   0008E0  598D               	subwfb	??___fladd& (0+255),w,b
  5714   0008E2  B0D8               	btfsc	status,0,c
  5715   0008E4  EF76  F004         	goto	u5181
  5716   0008E8  EF78  F004         	goto	u5180
  5717   0008EC                     u5181:
  5718   0008EC  EFB4  F004         	goto	l4078
  5719   0008F0                     u5180:
  5720   0008F0                     
  5721                           ; BSR set to: 1
  5722   0008F0  0100               	movlb	0	; () banked
  5723   0008F2  51C4               	movf	___fladd@b& (0+255),w,b
  5724   0008F4  5DC8               	subwf	___fladd@a& (0+255),w,b
  5725   0008F6  0101               	movlb	1	; () banked
  5726   0008F8  6F8D               	movwf	??___fladd& (0+255),b
  5727   0008FA  0100               	movlb	0	; () banked
  5728   0008FC  51C5               	movf	(___fladd@b+1)& (0+255),w,b
  5729   0008FE  59C9               	subwfb	(___fladd@a+1)& (0+255),w,b
  5730   000900  0101               	movlb	1	; () banked
  5731   000902  6F8E               	movwf	(??___fladd+1)& (0+255),b
  5732   000904  0100               	movlb	0	; () banked
  5733   000906  51C6               	movf	(___fladd@b+2)& (0+255),w,b
  5734   000908  59CA               	subwfb	(___fladd@a+2)& (0+255),w,b
  5735   00090A  0101               	movlb	1	; () banked
  5736   00090C  6F8F               	movwf	(??___fladd+2)& (0+255),b
  5737   00090E  0100               	movlb	0	; () banked
  5738   000910  51C7               	movf	(___fladd@b+3)& (0+255),w,b
  5739   000912  59CB               	subwfb	(___fladd@a+3)& (0+255),w,b
  5740   000914  0101               	movlb	1	; () banked
  5741   000916  6F90               	movwf	(??___fladd+3)& (0+255),b
  5742   000918  0EFF               	movlw	255
  5743   00091A  258D               	addwf	??___fladd& (0+255),w,b
  5744   00091C  0100               	movlb	0	; () banked
  5745   00091E  6FC4               	movwf	___fladd@b& (0+255),b
  5746   000920  0EFF               	movlw	255
  5747   000922  0101               	movlb	1	; () banked
  5748   000924  218E               	addwfc	(??___fladd+1)& (0+255),w,b
  5749   000926  0100               	movlb	0	; () banked
  5750   000928  6FC5               	movwf	(___fladd@b+1)& (0+255),b
  5751   00092A  0EFF               	movlw	255
  5752   00092C  0101               	movlb	1	; () banked
  5753   00092E  218F               	addwfc	(??___fladd+2)& (0+255),w,b
  5754   000930  0100               	movlb	0	; () banked
  5755   000932  6FC6               	movwf	(___fladd@b+2)& (0+255),b
  5756   000934  0EFF               	movlw	255
  5757   000936  0101               	movlb	1	; () banked
  5758   000938  2190               	addwfc	(??___fladd+3)& (0+255),w,b
  5759   00093A  0100               	movlb	0	; () banked
  5760   00093C  6FC7               	movwf	(___fladd@b+3)& (0+255),b
  5761   00093E  0E80               	movlw	128
  5762   000940  0101               	movlb	1	; () banked
  5763   000942  1B91               	xorwf	___fladd@signs& (0+255),f,b
  5764   000944                     
  5765                           ; BSR set to: 1
  5766   000944  6D94               	negf	___fladd@grs& (0+255),b
  5767   000946                     
  5768                           ; BSR set to: 1
  5769   000946  5194               	movf	___fladd@grs& (0+255),w,b
  5770   000948  A4D8               	btfss	status,2,c
  5771   00094A  EFA9  F004         	goto	u5191
  5772   00094E  EFAB  F004         	goto	u5190
  5773   000952                     u5191:
  5774   000952  EFBD  F004         	goto	l865
  5775   000956                     u5190:
  5776   000956                     
  5777                           ; BSR set to: 1
  5778   000956  0E01               	movlw	1
  5779   000958  0100               	movlb	0	; () banked
  5780   00095A  27C4               	addwf	___fladd@b& (0+255),f,b
  5781   00095C  0E00               	movlw	0
  5782   00095E  23C5               	addwfc	(___fladd@b+1)& (0+255),f,b
  5783   000960  23C6               	addwfc	(___fladd@b+2)& (0+255),f,b
  5784   000962  23C7               	addwfc	(___fladd@b+3)& (0+255),f,b
  5785   000964  EFBD  F004         	goto	l865
  5786   000968                     l4078:
  5787                           
  5788                           ; BSR set to: 1
  5789   000968  0100               	movlb	0	; () banked
  5790   00096A  51C8               	movf	___fladd@a& (0+255),w,b
  5791   00096C  5FC4               	subwf	___fladd@b& (0+255),f,b
  5792   00096E  51C9               	movf	(___fladd@a+1)& (0+255),w,b
  5793   000970  5BC5               	subwfb	(___fladd@b+1)& (0+255),f,b
  5794   000972  51CA               	movf	(___fladd@a+2)& (0+255),w,b
  5795   000974  5BC6               	subwfb	(___fladd@b+2)& (0+255),f,b
  5796   000976  51CB               	movf	(___fladd@a+3)& (0+255),w,b
  5797   000978  5BC7               	subwfb	(___fladd@b+3)& (0+255),f,b
  5798   00097A                     l865:
  5799   00097A  0100               	movlb	0	; () banked
  5800   00097C  51C4               	movf	___fladd@b& (0+255),w,b
  5801   00097E  11C5               	iorwf	(___fladd@b+1)& (0+255),w,b
  5802   000980  11C6               	iorwf	(___fladd@b+2)& (0+255),w,b
  5803   000982  11C7               	iorwf	(___fladd@b+3)& (0+255),w,b
  5804   000984  A4D8               	btfss	status,2,c
  5805   000986  EFC7  F004         	goto	u5201
  5806   00098A  EFC9  F004         	goto	u5200
  5807   00098E                     u5201:
  5808   00098E  EF03  F005         	goto	l4102
  5809   000992                     u5200:
  5810   000992                     
  5811                           ; BSR set to: 0
  5812   000992  0101               	movlb	1	; () banked
  5813   000994  5194               	movf	___fladd@grs& (0+255),w,b
  5814   000996  A4D8               	btfss	status,2,c
  5815   000998  EFD0  F004         	goto	u5211
  5816   00099C  EFD2  F004         	goto	u5210
  5817   0009A0                     u5211:
  5818   0009A0  EF03  F005         	goto	l4102
  5819   0009A4                     u5210:
  5820   0009A4                     
  5821                           ; BSR set to: 1
  5822   0009A4  0E00               	movlw	0
  5823   0009A6  0100               	movlb	0	; () banked
  5824   0009A8  6FC4               	movwf	?___fladd& (0+255),b
  5825   0009AA  0E00               	movlw	0
  5826   0009AC  6FC5               	movwf	(?___fladd+1)& (0+255),b
  5827   0009AE  0E00               	movlw	0
  5828   0009B0  6FC6               	movwf	(?___fladd+2)& (0+255),b
  5829   0009B2  0E00               	movlw	0
  5830   0009B4  6FC7               	movwf	(?___fladd+3)& (0+255),b
  5831   0009B6  EFAC  F005         	goto	l857
  5832   0009BA                     l4086:
  5833                           
  5834                           ; BSR set to: 0
  5835   0009BA  90D8               	bcf	status,0,c
  5836   0009BC  37C4               	rlcf	___fladd@b& (0+255),f,b
  5837   0009BE  37C5               	rlcf	(___fladd@b+1)& (0+255),f,b
  5838   0009C0  37C6               	rlcf	(___fladd@b+2)& (0+255),f,b
  5839   0009C2  37C7               	rlcf	(___fladd@b+3)& (0+255),f,b
  5840   0009C4                     
  5841                           ; BSR set to: 0
  5842   0009C4  0101               	movlb	1	; () banked
  5843   0009C6  AF94               	btfss	___fladd@grs& (0+255),7,b
  5844   0009C8  EFE8  F004         	goto	u5221
  5845   0009CC  EFEA  F004         	goto	u5220
  5846   0009D0                     u5221:
  5847   0009D0  EFEC  F004         	goto	l4092
  5848   0009D4                     u5220:
  5849   0009D4                     
  5850                           ; BSR set to: 1
  5851   0009D4  0100               	movlb	0	; () banked
  5852   0009D6  81C4               	bsf	___fladd@b& (0+255),0,b
  5853   0009D8                     l4092:
  5854   0009D8  0101               	movlb	1	; () banked
  5855   0009DA  A194               	btfss	___fladd@grs& (0+255),0,b
  5856   0009DC  EFF2  F004         	goto	u5231
  5857   0009E0  EFF4  F004         	goto	u5230
  5858   0009E4                     u5231:
  5859   0009E4  EFF8  F004         	goto	l4096
  5860   0009E8                     u5230:
  5861   0009E8                     
  5862                           ; BSR set to: 1
  5863   0009E8  80D8               	bsf	status,0,c
  5864   0009EA  3794               	rlcf	___fladd@grs& (0+255),f,b
  5865   0009EC  EFFA  F004         	goto	l4098
  5866   0009F0                     l4096:
  5867                           
  5868                           ; BSR set to: 1
  5869   0009F0  90D8               	bcf	status,0,c
  5870   0009F2  3794               	rlcf	___fladd@grs& (0+255),f,b
  5871   0009F4                     l4098:
  5872                           
  5873                           ; BSR set to: 1
  5874   0009F4  5193               	movf	___fladd@bexp& (0+255),w,b
  5875   0009F6  B4D8               	btfsc	status,2,c
  5876   0009F8  EF00  F005         	goto	u5241
  5877   0009FC  EF02  F005         	goto	u5240
  5878   000A00                     u5241:
  5879   000A00  EF03  F005         	goto	l4102
  5880   000A04                     u5240:
  5881   000A04                     
  5882                           ; BSR set to: 1
  5883   000A04  0793               	decf	___fladd@bexp& (0+255),f,b
  5884   000A06                     l4102:
  5885   000A06  0100               	movlb	0	; () banked
  5886   000A08  AFC6               	btfss	(___fladd@b+2)& (0+255),7,b
  5887   000A0A  EF09  F005         	goto	u5251
  5888   000A0E  EF0B  F005         	goto	u5250
  5889   000A12                     u5251:
  5890   000A12  EFDD  F004         	goto	l4086
  5891   000A16                     u5250:
  5892   000A16                     l862:
  5893   000A16  0101               	movlb	1	; () banked
  5894   000A18  6B92               	clrf	___fladd@aexp& (0+255),b
  5895   000A1A  AF94               	btfss	___fladd@grs& (0+255),7,b
  5896   000A1C  EF12  F005         	goto	u5261
  5897   000A20  EF14  F005         	goto	u5260
  5898   000A24                     u5261:
  5899   000A24  EF2E  F005         	goto	l874
  5900   000A28                     u5260:
  5901   000A28                     
  5902                           ; BSR set to: 1
  5903   000A28  C194  F18D         	movff	___fladd@grs,??___fladd
  5904   000A2C  0E7F               	movlw	127
  5905   000A2E  178D               	andwf	??___fladd& (0+255),f,b
  5906   000A30  B4D8               	btfsc	status,2,c
  5907   000A32  EF1D  F005         	goto	u5271
  5908   000A36  EF1F  F005         	goto	u5270
  5909   000A3A                     u5271:
  5910   000A3A  EF24  F005         	goto	l875
  5911   000A3E                     u5270:
  5912   000A3E                     l4106:
  5913   000A3E  0E01               	movlw	1
  5914   000A40  0101               	movlb	1	; () banked
  5915   000A42  6F92               	movwf	___fladd@aexp& (0+255),b
  5916   000A44  EF2E  F005         	goto	l874
  5917   000A48                     l875:
  5918                           
  5919                           ; BSR set to: 1
  5920   000A48  0100               	movlb	0	; () banked
  5921   000A4A  A1C4               	btfss	___fladd@b& (0+255),0,b
  5922   000A4C  EF2A  F005         	goto	u5281
  5923   000A50  EF2C  F005         	goto	u5280
  5924   000A54                     u5281:
  5925   000A54  EF2E  F005         	goto	l874
  5926   000A58                     u5280:
  5927   000A58  EF1F  F005         	goto	l4106
  5928   000A5C                     l874:
  5929   000A5C  0101               	movlb	1	; () banked
  5930   000A5E  5192               	movf	___fladd@aexp& (0+255),w,b
  5931   000A60  B4D8               	btfsc	status,2,c
  5932   000A62  EF35  F005         	goto	u5291
  5933   000A66  EF37  F005         	goto	u5290
  5934   000A6A                     u5291:
  5935   000A6A  EF64  F005         	goto	l4118
  5936   000A6E                     u5290:
  5937   000A6E                     
  5938                           ; BSR set to: 1
  5939   000A6E  0E01               	movlw	1
  5940   000A70  0100               	movlb	0	; () banked
  5941   000A72  27C4               	addwf	___fladd@b& (0+255),f,b
  5942   000A74  0E00               	movlw	0
  5943   000A76  23C5               	addwfc	(___fladd@b+1)& (0+255),f,b
  5944   000A78  23C6               	addwfc	(___fladd@b+2)& (0+255),f,b
  5945   000A7A  23C7               	addwfc	(___fladd@b+3)& (0+255),f,b
  5946   000A7C                     
  5947                           ; BSR set to: 0
  5948   000A7C  A1C7               	btfss	(___fladd@b+3)& (0+255),0,b
  5949   000A7E  EF43  F005         	goto	u5301
  5950   000A82  EF45  F005         	goto	u5300
  5951   000A86                     u5301:
  5952   000A86  EF64  F005         	goto	l4118
  5953   000A8A                     u5300:
  5954   000A8A                     
  5955                           ; BSR set to: 0
  5956   000A8A  C0C4  F18D         	movff	___fladd@b,??___fladd
  5957   000A8E  C0C5  F18E         	movff	___fladd@b+1,??___fladd+1
  5958   000A92  C0C6  F18F         	movff	___fladd@b+2,??___fladd+2
  5959   000A96  C0C7  F190         	movff	___fladd@b+3,??___fladd+3
  5960   000A9A  0101               	movlb	1	; () banked
  5961   000A9C  3590               	rlcf	(??___fladd+3)& (0+255),w,b
  5962   000A9E  3390               	rrcf	(??___fladd+3)& (0+255),f,b
  5963   000AA0  338F               	rrcf	(??___fladd+2)& (0+255),f,b
  5964   000AA2  338E               	rrcf	(??___fladd+1)& (0+255),f,b
  5965   000AA4  338D               	rrcf	??___fladd& (0+255),f,b
  5966   000AA6  C18D  F0C4         	movff	??___fladd,___fladd@b
  5967   000AAA  C18E  F0C5         	movff	??___fladd+1,___fladd@b+1
  5968   000AAE  C18F  F0C6         	movff	??___fladd+2,___fladd@b+2
  5969   000AB2  C190  F0C7         	movff	??___fladd+3,___fladd@b+3
  5970   000AB6  2993               	incf	___fladd@bexp& (0+255),w,b
  5971   000AB8  B4D8               	btfsc	status,2,c
  5972   000ABA  EF61  F005         	goto	u5311
  5973   000ABE  EF63  F005         	goto	u5310
  5974   000AC2                     u5311:
  5975   000AC2  EF64  F005         	goto	l4118
  5976   000AC6                     u5310:
  5977   000AC6                     
  5978                           ; BSR set to: 1
  5979   000AC6  2B93               	incf	___fladd@bexp& (0+255),f,b
  5980   000AC8                     l4118:
  5981   000AC8  0101               	movlb	1	; () banked
  5982   000ACA  2993               	incf	___fladd@bexp& (0+255),w,b
  5983   000ACC  B4D8               	btfsc	status,2,c
  5984   000ACE  EF6B  F005         	goto	u5321
  5985   000AD2  EF6D  F005         	goto	u5320
  5986   000AD6                     u5321:
  5987   000AD6  EF75  F005         	goto	l4122
  5988   000ADA                     u5320:
  5989   000ADA                     
  5990                           ; BSR set to: 1
  5991   000ADA  5193               	movf	___fladd@bexp& (0+255),w,b
  5992   000ADC  A4D8               	btfss	status,2,c
  5993   000ADE  EF73  F005         	goto	u5331
  5994   000AE2  EF75  F005         	goto	u5330
  5995   000AE6                     u5331:
  5996   000AE6  EF88  F005         	goto	l881
  5997   000AEA                     u5330:
  5998   000AEA                     l4122:
  5999                           
  6000                           ; BSR set to: 1
  6001   000AEA  0E00               	movlw	0
  6002   000AEC  0100               	movlb	0	; () banked
  6003   000AEE  6FC4               	movwf	___fladd@b& (0+255),b
  6004   000AF0  0E00               	movlw	0
  6005   000AF2  6FC5               	movwf	(___fladd@b+1)& (0+255),b
  6006   000AF4  0E00               	movlw	0
  6007   000AF6  6FC6               	movwf	(___fladd@b+2)& (0+255),b
  6008   000AF8  0E00               	movlw	0
  6009   000AFA  6FC7               	movwf	(___fladd@b+3)& (0+255),b
  6010   000AFC  0101               	movlb	1	; () banked
  6011   000AFE  5193               	movf	___fladd@bexp& (0+255),w,b
  6012   000B00  A4D8               	btfss	status,2,c
  6013   000B02  EF85  F005         	goto	u5341
  6014   000B06  EF87  F005         	goto	u5340
  6015   000B0A                     u5341:
  6016   000B0A  EF88  F005         	goto	l881
  6017   000B0E                     u5340:
  6018   000B0E                     
  6019                           ; BSR set to: 1
  6020   000B0E  6B91               	clrf	___fladd@signs& (0+255),b
  6021   000B10                     l881:
  6022                           
  6023                           ; BSR set to: 1
  6024   000B10  A193               	btfss	___fladd@bexp& (0+255),0,b
  6025   000B12  EF8D  F005         	goto	u5351
  6026   000B16  EF8F  F005         	goto	u5350
  6027   000B1A                     u5351:
  6028   000B1A  EF93  F005         	goto	l4128
  6029   000B1E                     u5350:
  6030   000B1E                     
  6031                           ; BSR set to: 1
  6032   000B1E  0100               	movlb	0	; () banked
  6033   000B20  8FC6               	bsf	(___fladd@b+2)& (0+255),7,b
  6034   000B22  EF95  F005         	goto	l4130
  6035   000B26                     l4128:
  6036                           
  6037                           ; BSR set to: 1
  6038   000B26  0100               	movlb	0	; () banked
  6039   000B28  9FC6               	bcf	(___fladd@b+2)& (0+255),7,b
  6040   000B2A                     l4130:
  6041                           
  6042                           ; BSR set to: 0
  6043   000B2A  0101               	movlb	1	; () banked
  6044   000B2C  90D8               	bcf	status,0,c
  6045   000B2E  3193               	rrcf	___fladd@bexp& (0+255),w,b
  6046   000B30  0100               	movlb	0	; () banked
  6047   000B32  6FC7               	movwf	(___fladd@b+3)& (0+255),b
  6048   000B34                     
  6049                           ; BSR set to: 0
  6050   000B34  0101               	movlb	1	; () banked
  6051   000B36  AF91               	btfss	___fladd@signs& (0+255),7,b
  6052   000B38  EFA0  F005         	goto	u5361
  6053   000B3C  EFA2  F005         	goto	u5360
  6054   000B40                     u5361:
  6055   000B40  EFA4  F005         	goto	l4136
  6056   000B44                     u5360:
  6057   000B44                     
  6058                           ; BSR set to: 1
  6059   000B44  0100               	movlb	0	; () banked
  6060   000B46  8FC7               	bsf	(___fladd@b+3)& (0+255),7,b
  6061   000B48                     l4136:
  6062   000B48  C0C4  F0C4         	movff	___fladd@b,?___fladd
  6063   000B4C  C0C5  F0C5         	movff	___fladd@b+1,?___fladd+1
  6064   000B50  C0C6  F0C6         	movff	___fladd@b+2,?___fladd+2
  6065   000B54  C0C7  F0C7         	movff	___fladd@b+3,?___fladd+3
  6066   000B58                     l857:
  6067   000B58  0012               	return		;funcret
  6068   000B5A                     __end_of___fladd:
  6069                           	callstack 0
  6070                           
  6071 ;; *************** function _Timer2GetPrescaler *****************
  6072 ;; Defined at:
  6073 ;;		line 31 in file "utils/timer.c"
  6074 ;; Parameters:    Size  Location     Type
  6075 ;;		None
  6076 ;; Auto vars:     Size  Location     Type
  6077 ;;		None
  6078 ;; Return value:  Size  Location     Type
  6079 ;;                  2   31[BANK0 ] int 
  6080 ;; Registers used:
  6081 ;;		None
  6082 ;; Tracked objects:
  6083 ;;		On entry : 0/0
  6084 ;;		On exit  : 0/0
  6085 ;;		Unchanged: 0/0
  6086 ;; Data sizes:     COMRAM   BANK0   BANK1   BANK2   BANK3   BANK4   BANK5
  6087 ;;      Params:         0       2       0       0       0       0       0
  6088 ;;      Locals:         0       0       0       0       0       0       0
  6089 ;;      Temps:          0       0       0       0       0       0       0
  6090 ;;      Totals:         0       2       0       0       0       0       0
  6091 ;;Total ram usage:        2 bytes
  6092 ;; Hardware stack levels used: 1
  6093 ;; Hardware stack levels required when called: 4
  6094 ;; This function calls:
  6095 ;;		Nothing
  6096 ;; This function is called by:
  6097 ;;		_PWMSetPeriod
  6098 ;;		_PWMSetDutyCycle
  6099 ;; This function uses a non-reentrant model
  6100 ;;
  6101                           
  6102                           	psect	text17
  6103   00315C                     __ptext17:
  6104                           	callstack 0
  6105   00315C                     _Timer2GetPrescaler:
  6106                           	callstack 24
  6107   00315C                     
  6108                           ;utils/timer.c: 32:     return Timer2Prescaler;
  6109   00315C  C1D3  F09F         	movff	_Timer2Prescaler,?_Timer2GetPrescaler
  6110   003160  C1D4  F0A0         	movff	_Timer2Prescaler+1,?_Timer2GetPrescaler+1
  6111   003164  0012               	return		;funcret
  6112   003166                     __end_of_Timer2GetPrescaler:
  6113                           	callstack 0
  6114                           
  6115 ;; *************** function _LedInitialize *****************
  6116 ;; Defined at:
  6117 ;;		line 3 in file "utils/led.c"
  6118 ;; Parameters:    Size  Location     Type
  6119 ;;		None
  6120 ;; Auto vars:     Size  Location     Type
  6121 ;;		None
  6122 ;; Return value:  Size  Location     Type
  6123 ;;                  1    wreg      void 
  6124 ;; Registers used:
  6125 ;;		wreg, status,2, status,0
  6126 ;; Tracked objects:
  6127 ;;		On entry : 0/0
  6128 ;;		On exit  : 0/0
  6129 ;;		Unchanged: 0/0
  6130 ;; Data sizes:     COMRAM   BANK0   BANK1   BANK2   BANK3   BANK4   BANK5
  6131 ;;      Params:         0       0       0       0       0       0       0
  6132 ;;      Locals:         0       0       0       0       0       0       0
  6133 ;;      Temps:          0       0       0       0       0       0       0
  6134 ;;      Totals:         0       0       0       0       0       0       0
  6135 ;;Total ram usage:        0 bytes
  6136 ;; Hardware stack levels used: 1
  6137 ;; Hardware stack levels required when called: 4
  6138 ;; This function calls:
  6139 ;;		Nothing
  6140 ;; This function is called by:
  6141 ;;		_ComponentInitialize
  6142 ;; This function uses a non-reentrant model
  6143 ;;
  6144                           
  6145                           	psect	text18
  6146   003116                     __ptext18:
  6147                           	callstack 0
  6148   003116                     _LedInitialize:
  6149                           	callstack 24
  6150   003116                     
  6151                           ;utils/led.c: 4:     TRISAbits.TRISA1 = 0;
  6152   003116  9292               	bcf	146,1,c	;volatile
  6153                           
  6154                           ;utils/led.c: 5:     TRISAbits.TRISA2 = 0;
  6155   003118  9492               	bcf	146,2,c	;volatile
  6156                           
  6157                           ;utils/led.c: 6:     TRISAbits.TRISA3 = 0;
  6158   00311A  9692               	bcf	146,3,c	;volatile
  6159                           
  6160                           ;utils/led.c: 7:     TRISAbits.TRISA4 = 0;
  6161   00311C  9892               	bcf	146,4,c	;volatile
  6162   00311E                     
  6163                           ;utils/led.c: 8:     (LATA = 0x00 | (LATA & 0x01));
  6164   00311E  5089               	movf	137,w,c	;volatile
  6165   003120  0B01               	andlw	1
  6166   003122  6E89               	movwf	137,c	;volatile
  6167   003124  0012               	return		;funcret
  6168   003126                     __end_of_LedInitialize:
  6169                           	callstack 0
  6170                           
  6171 ;; *************** function _InterruptInitialize *****************
  6172 ;; Defined at:
  6173 ;;		line 3 in file "utils/interrupt_manager.c"
  6174 ;; Parameters:    Size  Location     Type
  6175 ;;		None
  6176 ;; Auto vars:     Size  Location     Type
  6177 ;;		None
  6178 ;; Return value:  Size  Location     Type
  6179 ;;                  1    wreg      void 
  6180 ;; Registers used:
  6181 ;;		None
  6182 ;; Tracked objects:
  6183 ;;		On entry : 0/0
  6184 ;;		On exit  : 0/0
  6185 ;;		Unchanged: 0/0
  6186 ;; Data sizes:     COMRAM   BANK0   BANK1   BANK2   BANK3   BANK4   BANK5
  6187 ;;      Params:         0       0       0       0       0       0       0
  6188 ;;      Locals:         0       0       0       0       0       0       0
  6189 ;;      Temps:          0       0       0       0       0       0       0
  6190 ;;      Totals:         0       0       0       0       0       0       0
  6191 ;;Total ram usage:        0 bytes
  6192 ;; Hardware stack levels used: 1
  6193 ;; Hardware stack levels required when called: 4
  6194 ;; This function calls:
  6195 ;;		Nothing
  6196 ;; This function is called by:
  6197 ;;		_ComponentInitialize
  6198 ;; This function uses a non-reentrant model
  6199 ;;
  6200                           
  6201                           	psect	text19
  6202   003178                     __ptext19:
  6203                           	callstack 0
  6204   003178                     _InterruptInitialize:
  6205                           	callstack 24
  6206   003178                     
  6207                           ;utils/interrupt_manager.c: 4:     RCONbits.IPEN = 1;
  6208   003178  8ED0               	bsf	208,7,c	;volatile
  6209                           
  6210                           ;utils/interrupt_manager.c: 5:     INTCONbits.GIEH = 1;
  6211   00317A  8EF2               	bsf	242,7,c	;volatile
  6212                           
  6213                           ;utils/interrupt_manager.c: 6:     INTCONbits.GIEL = 1;
  6214   00317C  8CF2               	bsf	242,6,c	;volatile
  6215   00317E  0012               	return		;funcret
  6216   003180                     __end_of_InterruptInitialize:
  6217                           	callstack 0
  6218                           
  6219 ;; *************** function _ButtonInitialize *****************
  6220 ;; Defined at:
  6221 ;;		line 9 in file "utils/interrupt_manager.c"
  6222 ;; Parameters:    Size  Location     Type
  6223 ;;  interrupt       2   31[BANK0 ] int 
  6224 ;; Auto vars:     Size  Location     Type
  6225 ;;		None
  6226 ;; Return value:  Size  Location     Type
  6227 ;;                  1    wreg      void 
  6228 ;; Registers used:
  6229 ;;		wreg, status,2, status,0
  6230 ;; Tracked objects:
  6231 ;;		On entry : 0/0
  6232 ;;		On exit  : 0/0
  6233 ;;		Unchanged: 0/0
  6234 ;; Data sizes:     COMRAM   BANK0   BANK1   BANK2   BANK3   BANK4   BANK5
  6235 ;;      Params:         0       2       0       0       0       0       0
  6236 ;;      Locals:         0       0       0       0       0       0       0
  6237 ;;      Temps:          0       0       0       0       0       0       0
  6238 ;;      Totals:         0       2       0       0       0       0       0
  6239 ;;Total ram usage:        2 bytes
  6240 ;; Hardware stack levels used: 1
  6241 ;; Hardware stack levels required when called: 4
  6242 ;; This function calls:
  6243 ;;		Nothing
  6244 ;; This function is called by:
  6245 ;;		_ComponentInitialize
  6246 ;; This function uses a non-reentrant model
  6247 ;;
  6248                           
  6249                           	psect	text20
  6250   0030A2                     __ptext20:
  6251                           	callstack 0
  6252   0030A2                     _ButtonInitialize:
  6253                           	callstack 24
  6254   0030A2                     
  6255                           ;utils/interrupt_manager.c: 10:     ADCON1 = 0x0F;
  6256   0030A2  0E0F               	movlw	15
  6257   0030A4  6EC1               	movwf	193,c	;volatile
  6258   0030A6                     
  6259                           ;utils/interrupt_manager.c: 11:     TRISBbits.TRISB0 = 1;
  6260   0030A6  8093               	bsf	147,0,c	;volatile
  6261   0030A8                     
  6262                           ;utils/interrupt_manager.c: 12:     if (interrupt){
  6263   0030A8  0100               	movlb	0	; () banked
  6264   0030AA  519F               	movf	ButtonInitialize@interrupt& (0+255),w,b
  6265   0030AC  11A0               	iorwf	(ButtonInitialize@interrupt+1)& (0+255),w,b
  6266   0030AE  B4D8               	btfsc	status,2,c
  6267   0030B0  EF5C  F018         	goto	u3561
  6268   0030B4  EF5E  F018         	goto	u3560
  6269   0030B8                     u3561:
  6270   0030B8  EF60  F018         	goto	l92
  6271   0030BC                     u3560:
  6272   0030BC                     
  6273                           ; BSR set to: 0
  6274                           ;utils/interrupt_manager.c: 13:         INTCONbits.INT0IF = 0;
  6275   0030BC  92F2               	bcf	242,1,c	;volatile
  6276                           
  6277                           ;utils/interrupt_manager.c: 14:         INTCONbits.INT0IE = 1;
  6278   0030BE  88F2               	bsf	242,4,c	;volatile
  6279   0030C0                     l92:
  6280                           
  6281                           ; BSR set to: 0
  6282   0030C0  0012               	return		;funcret
  6283   0030C2                     __end_of_ButtonInitialize:
  6284                           	callstack 0
  6285                           
  6286 ;; *************** function _AdcInitialize *****************
  6287 ;; Defined at:
  6288 ;;		line 5 in file "utils/adc.c"
  6289 ;; Parameters:    Size  Location     Type
  6290 ;;  int_priority    1    wreg     enum E2584
  6291 ;; Auto vars:     Size  Location     Type
  6292 ;;  int_priority    1   32[BANK0 ] enum E2584
  6293 ;; Return value:  Size  Location     Type
  6294 ;;                  1    wreg      void 
  6295 ;; Registers used:
  6296 ;;		wreg, status,2, status,0, cstack
  6297 ;; Tracked objects:
  6298 ;;		On entry : 0/0
  6299 ;;		On exit  : 0/0
  6300 ;;		Unchanged: 0/0
  6301 ;; Data sizes:     COMRAM   BANK0   BANK1   BANK2   BANK3   BANK4   BANK5
  6302 ;;      Params:         0       0       0       0       0       0       0
  6303 ;;      Locals:         0       1       0       0       0       0       0
  6304 ;;      Temps:          0       0       0       0       0       0       0
  6305 ;;      Totals:         0       1       0       0       0       0       0
  6306 ;;Total ram usage:        1 bytes
  6307 ;; Hardware stack levels used: 1
  6308 ;; Hardware stack levels required when called: 5
  6309 ;; This function calls:
  6310 ;;		_AdcEnableInterrupt
  6311 ;; This function is called by:
  6312 ;;		_ComponentInitialize
  6313 ;; This function uses a non-reentrant model
  6314 ;;
  6315                           
  6316                           	psect	text21
  6317   002FF0                     __ptext21:
  6318                           	callstack 0
  6319   002FF0                     _AdcInitialize:
  6320                           	callstack 23
  6321                           
  6322                           ; BSR set to: 0
  6323                           ;incstack = 0
  6324                           ;AdcInitialize@int_priority stored from wreg
  6325   002FF0  0100               	movlb	0	; () banked
  6326   002FF2  6FA0               	movwf	AdcInitialize@int_priority& (0+255),b
  6327   002FF4                     
  6328                           ;utils/adc.c: 6:     TRISAbits.RA0 = 1;
  6329   002FF4  8092               	bsf	146,0,c	;volatile
  6330                           
  6331                           ;utils/adc.c: 8:     ADCON1bits.VCFG0 = 0;
  6332   002FF6  98C1               	bcf	193,4,c	;volatile
  6333                           
  6334                           ;utils/adc.c: 9:     ADCON1bits.VCFG1 = 0;
  6335   002FF8  9AC1               	bcf	193,5,c	;volatile
  6336   002FFA                     
  6337                           ;utils/adc.c: 10:     ADCON1bits.PCFG = 0b1110;
  6338   002FFA  50C1               	movf	193,w,c	;volatile
  6339   002FFC  0BF0               	andlw	-16
  6340   002FFE  090E               	iorlw	14
  6341   003000  6EC1               	movwf	193,c	;volatile
  6342   003002                     
  6343                           ;utils/adc.c: 12:     ADCON2bits.ADFM = LEFT_JUSTIFIED;
  6344   003002  9EC0               	bcf	192,7,c	;volatile
  6345                           
  6346                           ;utils/adc.c: 14:     ADCON2bits.ADCS = 0b100;
  6347   003004  50C0               	movf	192,w,c	;volatile
  6348   003006  0BF8               	andlw	-8
  6349   003008  0904               	iorlw	4
  6350   00300A  6EC0               	movwf	192,c	;volatile
  6351                           
  6352                           ;utils/adc.c: 15:     ADCON2bits.ACQT = 0b010;
  6353   00300C  50C0               	movf	192,w,c	;volatile
  6354   00300E  0BC7               	andlw	-57
  6355   003010  0910               	iorlw	16
  6356   003012  6EC0               	movwf	192,c	;volatile
  6357   003014                     
  6358                           ;utils/adc.c: 17:     if(int_priority != INTERRUPT_NONE){
  6359   003014  0E02               	movlw	2
  6360   003016  0100               	movlb	0	; () banked
  6361   003018  19A0               	xorwf	AdcInitialize@int_priority& (0+255),w,b
  6362   00301A  B4D8               	btfsc	status,2,c
  6363   00301C  EF12  F018         	goto	u3551
  6364   003020  EF14  F018         	goto	u3550
  6365   003024                     u3551:
  6366   003024  EF17  F018         	goto	l3084
  6367   003028                     u3550:
  6368   003028                     
  6369                           ; BSR set to: 0
  6370                           ;utils/adc.c: 18:         AdcEnableInterrupt(int_priority);
  6371   003028  51A0               	movf	AdcInitialize@int_priority& (0+255),w,b
  6372   00302A  EC61  F018         	call	_AdcEnableInterrupt
  6373   00302E                     l3084:
  6374                           
  6375                           ;utils/adc.c: 22:     ADCON0bits.CHS = 0;
  6376   00302E  0EC3               	movlw	-61
  6377   003030  16C2               	andwf	194,f,c	;volatile
  6378   003032                     
  6379                           ;utils/adc.c: 23:     ADCON0bits.ADON = 1;
  6380   003032  80C2               	bsf	194,0,c	;volatile
  6381   003034                     
  6382                           ;utils/adc.c: 24:     ADCON0bits.GO = 1;
  6383   003034  82C2               	bsf	194,1,c	;volatile
  6384   003036  0012               	return		;funcret
  6385   003038                     __end_of_AdcInitialize:
  6386                           	callstack 0
  6387                           
  6388 ;; *************** function _AdcEnableInterrupt *****************
  6389 ;; Defined at:
  6390 ;;		line 27 in file "utils/adc.c"
  6391 ;; Parameters:    Size  Location     Type
  6392 ;;  priority        1    wreg     enum E2584
  6393 ;; Auto vars:     Size  Location     Type
  6394 ;;  priority        1   31[BANK0 ] enum E2584
  6395 ;; Return value:  Size  Location     Type
  6396 ;;                  1    wreg      void 
  6397 ;; Registers used:
  6398 ;;		wreg
  6399 ;; Tracked objects:
  6400 ;;		On entry : 0/0
  6401 ;;		On exit  : 0/0
  6402 ;;		Unchanged: 0/0
  6403 ;; Data sizes:     COMRAM   BANK0   BANK1   BANK2   BANK3   BANK4   BANK5
  6404 ;;      Params:         0       0       0       0       0       0       0
  6405 ;;      Locals:         0       1       0       0       0       0       0
  6406 ;;      Temps:          0       0       0       0       0       0       0
  6407 ;;      Totals:         0       1       0       0       0       0       0
  6408 ;;Total ram usage:        1 bytes
  6409 ;; Hardware stack levels used: 1
  6410 ;; Hardware stack levels required when called: 4
  6411 ;; This function calls:
  6412 ;;		Nothing
  6413 ;; This function is called by:
  6414 ;;		_AdcInitialize
  6415 ;; This function uses a non-reentrant model
  6416 ;;
  6417                           
  6418                           	psect	text22
  6419   0030C2                     __ptext22:
  6420                           	callstack 0
  6421   0030C2                     _AdcEnableInterrupt:
  6422                           	callstack 23
  6423                           
  6424                           ;incstack = 0
  6425                           ;AdcEnableInterrupt@priority stored from wreg
  6426   0030C2  0100               	movlb	0	; () banked
  6427   0030C4  6F9F               	movwf	AdcEnableInterrupt@priority& (0+255),b
  6428   0030C6                     
  6429                           ;utils/adc.c: 28:     PIE1bits.ADIE = 1;
  6430   0030C6  8C9D               	bsf	157,6,c	;volatile
  6431                           
  6432                           ;utils/adc.c: 29:     PIR1bits.ADIF = 0;
  6433   0030C8  9C9E               	bcf	158,6,c	;volatile
  6434   0030CA                     
  6435                           ;utils/adc.c: 30:     IPR1bits.ADIP = priority;
  6436   0030CA  0100               	movlb	0	; () banked
  6437   0030CC  B19F               	btfsc	AdcEnableInterrupt@priority& (0+255),0,b
  6438   0030CE  D002               	bra	u3495
  6439   0030D0  9C9F               	bcf	159,6,c	;volatile
  6440   0030D2  D001               	bra	u3496
  6441   0030D4                     u3495:
  6442   0030D4  8C9F               	bsf	159,6,c	;volatile
  6443   0030D6                     u3496:
  6444   0030D6  0012               	return		;funcret
  6445   0030D8                     __end_of_AdcEnableInterrupt:
  6446                           	callstack 0
  6447                           
  6448 ;; *************** function _LowIsr *****************
  6449 ;; Defined at:
  6450 ;;		line 78 in file "main.c"
  6451 ;; Parameters:    Size  Location     Type
  6452 ;;		None
  6453 ;; Auto vars:     Size  Location     Type
  6454 ;;  str            20    0[BANK0 ] unsigned char [20]
  6455 ;;  val             2   28[BANK0 ] int 
  6456 ;;  ch              1   30[BANK0 ] unsigned char 
  6457 ;; Return value:  Size  Location     Type
  6458 ;;                  1    wreg      void 
  6459 ;; Registers used:
  6460 ;;		wreg, fsr1l, fsr1h, fsr2l, fsr2h, status,2, status,0, prodl, prodh, cstack
  6461 ;; Tracked objects:
  6462 ;;		On entry : 0/0
  6463 ;;		On exit  : 0/0
  6464 ;;		Unchanged: 0/0
  6465 ;; Data sizes:     COMRAM   BANK0   BANK1   BANK2   BANK3   BANK4   BANK5
  6466 ;;      Params:         0       0       0       0       0       0       0
  6467 ;;      Locals:         0      31       0       0       0       0       0
  6468 ;;      Temps:          9       0       0       0       0       0       0
  6469 ;;      Totals:         9      31       0       0       0       0       0
  6470 ;;Total ram usage:       40 bytes
  6471 ;; Hardware stack levels used: 1
  6472 ;; Hardware stack levels required when called: 3
  6473 ;; This function calls:
  6474 ;;		_UartClearBuffer
  6475 ;;		_UartCopyBufferToString
  6476 ;;		_UartGetChar
  6477 ;;		_UartReceiveChar
  6478 ;;		_atoi
  6479 ;;		i1_PWMSetDutyCycle
  6480 ;;		i1___fladd
  6481 ;;		i1___fldiv
  6482 ;;		i1___flmul
  6483 ;;		i1___xxtofl
  6484 ;; This function is called by:
  6485 ;;		Interrupt level 1
  6486 ;; This function uses a non-reentrant model
  6487 ;;
  6488                           
  6489                           	psect	intcodelo
  6490   000018                     __pintcodelo:
  6491                           	callstack 0
  6492   000018                     _LowIsr:
  6493                           	callstack 22
  6494                           
  6495                           ;incstack = 0
  6496   000018  8079               	bsf	int$flags,0,c	;set compiler interrupt flag (level 1)
  6497   00001A  CFD8 F066          	movff	status,??_LowIsr
  6498   00001E  CFE8 F067          	movff	wreg,??_LowIsr+1
  6499   000022  CFE0 F068          	movff	bsr,??_LowIsr+2
  6500   000026  CFE1 F069          	movff	fsr1l,??_LowIsr+3
  6501   00002A  CFE2 F06A          	movff	fsr1h,??_LowIsr+4
  6502   00002E  CFD9 F06B          	movff	fsr2l,??_LowIsr+5
  6503   000032  CFDA F06C          	movff	fsr2h,??_LowIsr+6
  6504   000036  CFF3 F06D          	movff	prodl,??_LowIsr+7
  6505   00003A  CFF4 F06E          	movff	prodh,??_LowIsr+8
  6506   00003E                     
  6507                           ;main.c: 79:     if(RCIF){
  6508   00003E  AA9E               	btfss	3998,5,c	;volatile
  6509   000040  EF24  F000         	goto	i1u495_21
  6510   000044  EF26  F000         	goto	i1u495_20
  6511   000048                     i1u495_21:
  6512   000048  EF61  F000         	goto	i1l3936
  6513   00004C                     i1u495_20:
  6514   00004C                     
  6515                           ;main.c: 80:         UartReceiveChar();
  6516   00004C  ECAF  F017         	call	_UartReceiveChar	;wreg free
  6517                           
  6518                           ;main.c: 81:         char ch = UartGetChar();
  6519   000050  EC3D  F018         	call	_UartGetChar	;wreg free
  6520   000054  0100               	movlb	0	; () banked
  6521   000056  6F9E               	movwf	LowIsr@ch& (0+255),b
  6522   000058                     
  6523                           ; BSR set to: 0
  6524                           ;main.c: 83:         if(ch == '\r'){
  6525   000058  0E0D               	movlw	13
  6526   00005A  199E               	xorwf	LowIsr@ch& (0+255),w,b
  6527   00005C  A4D8               	btfss	status,2,c
  6528   00005E  EF33  F000         	goto	i1u496_21
  6529   000062  EF35  F000         	goto	i1u496_20
  6530   000066                     i1u496_21:
  6531   000066  EF61  F000         	goto	i1l3936
  6532   00006A                     i1u496_20:
  6533   00006A                     
  6534                           ; BSR set to: 0
  6535                           ;main.c: 84:             char str[20];;main.c: 85:             UartCopyBufferToString(st
      +                          r);
  6536   00006A  0E80               	movlw	low LowIsr@str
  6537   00006C  6E01               	movwf	UartCopyBufferToString@str^0,c
  6538   00006E  EC60  F017         	call	_UartCopyBufferToString	;wreg free
  6539   000072                     
  6540                           ;main.c: 89:              duty_cycle_us = atoi(str);
  6541   000072  0E80               	movlw	low LowIsr@str
  6542   000074  6E01               	movwf	atoi@s^0,c
  6543   000076  ECF8  F014         	call	_atoi	;wreg free
  6544   00007A  C001  F0D9         	movff	?_atoi,_duty_cycle_us
  6545   00007E  C002  F0DA         	movff	?_atoi+1,_duty_cycle_us+1
  6546   000082                     
  6547                           ;main.c: 90:              PWMSetDutyCycle(duty_cycle_us);
  6548   000082  C0D9  F001         	movff	_duty_cycle_us,i1___xxtofl@val
  6549   000086  C0DA  F002         	movff	_duty_cycle_us+1,i1___xxtofl@val+1
  6550   00008A  0E00               	movlw	0
  6551   00008C  BE02               	btfsc	(i1___xxtofl@val+1)^0,7,c
  6552   00008E  0EFF               	movlw	-1
  6553   000090  6E03               	movwf	(i1___xxtofl@val+2)^0,c
  6554   000092  6E04               	movwf	(i1___xxtofl@val+3)^0,c
  6555   000094  0E01               	movlw	1
  6556   000096  EC0E  F012         	call	i1___xxtofl
  6557   00009A  C001  F094         	movff	?i1___xxtofl,_LowIsr$2191
  6558   00009E  C002  F095         	movff	?i1___xxtofl+1,_LowIsr$2191+1
  6559   0000A2  C003  F096         	movff	?i1___xxtofl+2,_LowIsr$2191+2
  6560   0000A6  C004  F097         	movff	?i1___xxtofl+3,_LowIsr$2191+3
  6561   0000AA                     
  6562                           ;main.c: 90:              PWMSetDutyCycle(duty_cycle_us);
  6563   0000AA  C094  F04B         	movff	_LowIsr$2191,i1PWMSetDutyCycle@duty_cycle_us
  6564   0000AE  C095  F04C         	movff	_LowIsr$2191+1,i1PWMSetDutyCycle@duty_cycle_us+1
  6565   0000B2  C096  F04D         	movff	_LowIsr$2191+2,i1PWMSetDutyCycle@duty_cycle_us+2
  6566   0000B6  C097  F04E         	movff	_LowIsr$2191+3,i1PWMSetDutyCycle@duty_cycle_us+3
  6567   0000BA  EC9F  F013         	call	i1_PWMSetDutyCycle	;wreg free
  6568   0000BE                     
  6569                           ;main.c: 94:             UartClearBuffer();
  6570   0000BE  EC9B  F018         	call	_UartClearBuffer	;wreg free
  6571   0000C2                     i1l3936:
  6572                           
  6573                           ;main.c: 97:     if(PIR1bits.ADIF){
  6574   0000C2  AC9E               	btfss	158,6,c	;volatile
  6575   0000C4  EF66  F000         	goto	i1u497_21
  6576   0000C8  EF68  F000         	goto	i1u497_20
  6577   0000CC                     i1u497_21:
  6578   0000CC  EFC2  F000         	goto	i1l317
  6579   0000D0                     i1u497_20:
  6580   0000D0                     
  6581                           ;main.c: 98:         int val = (ADRESH);
  6582   0000D0  CFC4 F09C          	movff	4036,LowIsr@val	;volatile
  6583   0000D4  0100               	movlb	0	; () banked
  6584   0000D6  6B9D               	clrf	(LowIsr@val+1)& (0+255),b
  6585   0000D8                     
  6586                           ; BSR set to: 0
  6587                           ;main.c: 99:         PWMSetDutyCycle((2400 - 1450) * (double)val / 0b11111111 + 1450);
  6588   0000D8  0E00               	movlw	0
  6589   0000DA  6E2C               	movwf	i1___fldiv@a^0,c
  6590   0000DC  0E00               	movlw	0
  6591   0000DE  6E2D               	movwf	(i1___fldiv@a+1)^0,c
  6592   0000E0  0E7F               	movlw	127
  6593   0000E2  6E2E               	movwf	(i1___fldiv@a+2)^0,c
  6594   0000E4  0E43               	movlw	67
  6595   0000E6  6E2F               	movwf	(i1___fldiv@a+3)^0,c
  6596   0000E8  0E00               	movlw	0
  6597   0000EA  6E13               	movwf	i1___flmul@a^0,c
  6598   0000EC  0E80               	movlw	128
  6599   0000EE  6E14               	movwf	(i1___flmul@a+1)^0,c
  6600   0000F0  0E6D               	movlw	109
  6601   0000F2  6E15               	movwf	(i1___flmul@a+2)^0,c
  6602   0000F4  0E44               	movlw	68
  6603   0000F6  6E16               	movwf	(i1___flmul@a+3)^0,c
  6604   0000F8  C09C  F001         	movff	LowIsr@val,i1___xxtofl@val
  6605   0000FC  C09D  F002         	movff	LowIsr@val+1,i1___xxtofl@val+1
  6606   000100  0E00               	movlw	0
  6607   000102  BE02               	btfsc	(i1___xxtofl@val+1)^0,7,c
  6608   000104  0EFF               	movlw	-1
  6609   000106  6E03               	movwf	(i1___xxtofl@val+2)^0,c
  6610   000108  6E04               	movwf	(i1___xxtofl@val+3)^0,c
  6611   00010A  0E01               	movlw	1
  6612   00010C  EC0E  F012         	call	i1___xxtofl
  6613   000110  C001  F00F         	movff	?i1___xxtofl,i1___flmul@b
  6614   000114  C002  F010         	movff	?i1___xxtofl+1,i1___flmul@b+1
  6615   000118  C003  F011         	movff	?i1___xxtofl+2,i1___flmul@b+2
  6616   00011C  C004  F012         	movff	?i1___xxtofl+3,i1___flmul@b+3
  6617   000120  EC1C  F00A         	call	i1___flmul	;wreg free
  6618   000124  C00F  F028         	movff	?i1___flmul,i1___fldiv@b
  6619   000128  C010  F029         	movff	?i1___flmul+1,i1___fldiv@b+1
  6620   00012C  C011  F02A         	movff	?i1___flmul+2,i1___fldiv@b+2
  6621   000130  C012  F02B         	movff	?i1___flmul+3,i1___fldiv@b+3
  6622   000134  EC41  F00E         	call	i1___fldiv	;wreg free
  6623   000138  C028  F041         	movff	?i1___fldiv,i1___fladd@b
  6624   00013C  C029  F042         	movff	?i1___fldiv+1,i1___fladd@b+1
  6625   000140  C02A  F043         	movff	?i1___fldiv+2,i1___fladd@b+2
  6626   000144  C02B  F044         	movff	?i1___fldiv+3,i1___fladd@b+3
  6627   000148  0E00               	movlw	0
  6628   00014A  6E45               	movwf	i1___fladd@a^0,c
  6629   00014C  0E40               	movlw	64
  6630   00014E  6E46               	movwf	(i1___fladd@a+1)^0,c
  6631   000150  0EB5               	movlw	181
  6632   000152  6E47               	movwf	(i1___fladd@a+2)^0,c
  6633   000154  0E44               	movlw	68
  6634   000156  6E48               	movwf	(i1___fladd@a+3)^0,c
  6635   000158  ECAD  F005         	call	i1___fladd	;wreg free
  6636   00015C  C041  F098         	movff	?i1___fladd,_LowIsr$2192
  6637   000160  C042  F099         	movff	?i1___fladd+1,_LowIsr$2192+1
  6638   000164  C043  F09A         	movff	?i1___fladd+2,_LowIsr$2192+2
  6639   000168  C044  F09B         	movff	?i1___fladd+3,_LowIsr$2192+3
  6640                           
  6641                           ;main.c: 99:         PWMSetDutyCycle((2400 - 1450) * (double)val / 0b11111111 + 1450);
  6642   00016C  C098  F04B         	movff	_LowIsr$2192,i1PWMSetDutyCycle@duty_cycle_us
  6643   000170  C099  F04C         	movff	_LowIsr$2192+1,i1PWMSetDutyCycle@duty_cycle_us+1
  6644   000174  C09A  F04D         	movff	_LowIsr$2192+2,i1PWMSetDutyCycle@duty_cycle_us+2
  6645   000178  C09B  F04E         	movff	_LowIsr$2192+3,i1PWMSetDutyCycle@duty_cycle_us+3
  6646   00017C  EC9F  F013         	call	i1_PWMSetDutyCycle	;wreg free
  6647   000180                     
  6648                           ;main.c: 100:         ADCON0bits.GO = 1;
  6649   000180  82C2               	bsf	194,1,c	;volatile
  6650   000182                     
  6651                           ;main.c: 101:         PIR1bits.ADIF = 0;
  6652   000182  9C9E               	bcf	158,6,c	;volatile
  6653   000184                     i1l317:
  6654   000184  C06E  FFF4         	movff	??_LowIsr+8,prodh
  6655   000188  C06D  FFF3         	movff	??_LowIsr+7,prodl
  6656   00018C  C06C  FFDA         	movff	??_LowIsr+6,fsr2h
  6657   000190  C06B  FFD9         	movff	??_LowIsr+5,fsr2l
  6658   000194  C06A  FFE2         	movff	??_LowIsr+4,fsr1h
  6659   000198  C069  FFE1         	movff	??_LowIsr+3,fsr1l
  6660   00019C  C068  FFE0         	movff	??_LowIsr+2,bsr
  6661   0001A0  C067  FFE8         	movff	??_LowIsr+1,wreg
  6662   0001A4  C066  FFD8         	movff	??_LowIsr,status
  6663   0001A8  9079               	bcf	int$flags,0,c	;clear compiler interrupt flag (level 1)
  6664   0001AA  0010               	retfie	
  6665   0001AC                     __end_of_LowIsr:
  6666                           	callstack 0
  6667                           
  6668 ;; *************** function i1___fladd *****************
  6669 ;; Defined at:
  6670 ;;		line 10 in file "/Applications/microchip/xc8/v2.50/pic/sources/c99/common/sprcadd.c"
  6671 ;; Parameters:    Size  Location     Type
  6672 ;;  b               4   64[COMRAM] void 
  6673 ;;  a               4   68[COMRAM] void 
  6674 ;; Auto vars:     Size  Location     Type
  6675 ;;  grs             1   79[COMRAM] unsigned char 
  6676 ;;  bexp            1   78[COMRAM] unsigned char 
  6677 ;;  aexp            1   77[COMRAM] unsigned char 
  6678 ;;  signs           1   76[COMRAM] unsigned char 
  6679 ;; Return value:  Size  Location     Type
  6680 ;;                  4   64[COMRAM] unsigned char 
  6681 ;; Registers used:
  6682 ;;		wreg, status,2, status,0
  6683 ;; Tracked objects:
  6684 ;;		On entry : 0/0
  6685 ;;		On exit  : 0/0
  6686 ;;		Unchanged: 0/0
  6687 ;; Data sizes:     COMRAM   BANK0   BANK1   BANK2   BANK3   BANK4   BANK5
  6688 ;;      Params:         8       0       0       0       0       0       0
  6689 ;;      Locals:         4       0       0       0       0       0       0
  6690 ;;      Temps:          4       0       0       0       0       0       0
  6691 ;;      Totals:        16       0       0       0       0       0       0
  6692 ;;Total ram usage:       16 bytes
  6693 ;; Hardware stack levels used: 1
  6694 ;; Hardware stack levels required when called: 1
  6695 ;; This function calls:
  6696 ;;		Nothing
  6697 ;; This function is called by:
  6698 ;;		_LowIsr
  6699 ;; This function uses a non-reentrant model
  6700 ;;
  6701                           
  6702                           	psect	text24
  6703   000B5A                     __ptext24:
  6704                           	callstack 0
  6705   000B5A                     i1___fladd:
  6706                           	callstack 23
  6707   000B5A  5044               	movf	(i1___fladd@b+3)^0,w,c
  6708   000B5C  0B80               	andlw	128
  6709   000B5E  6E4D               	movwf	i1___fladd@signs^0,c
  6710   000B60  5044               	movf	(i1___fladd@b+3)^0,w,c
  6711   000B62  2444               	addwf	(i1___fladd@b+3)^0,w,c
  6712   000B64  6E4F               	movwf	i1___fladd@bexp^0,c
  6713   000B66  AE43               	btfss	(i1___fladd@b+2)^0,7,c
  6714   000B68  EFB8  F005         	goto	i1u452_21
  6715   000B6C  EFBA  F005         	goto	i1u452_20
  6716   000B70                     i1u452_21:
  6717   000B70  EFBB  F005         	goto	i1l3688
  6718   000B74                     i1u452_20:
  6719   000B74  804F               	bsf	i1___fladd@bexp^0,0,c
  6720   000B76                     i1l3688:
  6721   000B76  504F               	movf	i1___fladd@bexp^0,w,c
  6722   000B78  B4D8               	btfsc	status,2,c
  6723   000B7A  EFC1  F005         	goto	i1u453_21
  6724   000B7E  EFC3  F005         	goto	i1u453_20
  6725   000B82                     i1u453_21:
  6726   000B82  EFD7  F005         	goto	i1l3698
  6727   000B86                     i1u453_20:
  6728   000B86  284F               	incf	i1___fladd@bexp^0,w,c
  6729   000B88  A4D8               	btfss	status,2,c
  6730   000B8A  EFC9  F005         	goto	i1u454_21
  6731   000B8E  EFCB  F005         	goto	i1u454_20
  6732   000B92                     i1u454_21:
  6733   000B92  EFD3  F005         	goto	i1l3694
  6734   000B96                     i1u454_20:
  6735   000B96  0E00               	movlw	0
  6736   000B98  6E41               	movwf	i1___fladd@b^0,c
  6737   000B9A  0E00               	movlw	0
  6738   000B9C  6E42               	movwf	(i1___fladd@b+1)^0,c
  6739   000B9E  0E00               	movlw	0
  6740   000BA0  6E43               	movwf	(i1___fladd@b+2)^0,c
  6741   000BA2  0E00               	movlw	0
  6742   000BA4  6E44               	movwf	(i1___fladd@b+3)^0,c
  6743   000BA6                     i1l3694:
  6744   000BA6  8E43               	bsf	(i1___fladd@b+2)^0,7,c
  6745   000BA8  6A44               	clrf	(i1___fladd@b+3)^0,c
  6746   000BAA  EFDF  F005         	goto	i1l3700
  6747   000BAE                     i1l3698:
  6748   000BAE  0E00               	movlw	0
  6749   000BB0  6E41               	movwf	i1___fladd@b^0,c
  6750   000BB2  0E00               	movlw	0
  6751   000BB4  6E42               	movwf	(i1___fladd@b+1)^0,c
  6752   000BB6  0E00               	movlw	0
  6753   000BB8  6E43               	movwf	(i1___fladd@b+2)^0,c
  6754   000BBA  0E00               	movlw	0
  6755   000BBC  6E44               	movwf	(i1___fladd@b+3)^0,c
  6756   000BBE                     i1l3700:
  6757   000BBE  5048               	movf	(i1___fladd@a+3)^0,w,c
  6758   000BC0  0B80               	andlw	128
  6759   000BC2  6E4E               	movwf	i1___fladd@aexp^0,c
  6760   000BC4  504D               	movf	i1___fladd@signs^0,w,c
  6761   000BC6  184E               	xorwf	i1___fladd@aexp^0,w,c
  6762   000BC8  B4D8               	btfsc	status,2,c
  6763   000BCA  EFE9  F005         	goto	i1u455_21
  6764   000BCE  EFEB  F005         	goto	i1u455_20
  6765   000BD2                     i1u455_21:
  6766   000BD2  EFEC  F005         	goto	i1l3706
  6767   000BD6                     i1u455_20:
  6768   000BD6  8C4D               	bsf	i1___fladd@signs^0,6,c
  6769   000BD8                     i1l3706:
  6770   000BD8  5048               	movf	(i1___fladd@a+3)^0,w,c
  6771   000BDA  2448               	addwf	(i1___fladd@a+3)^0,w,c
  6772   000BDC  6E4E               	movwf	i1___fladd@aexp^0,c
  6773   000BDE  AE47               	btfss	(i1___fladd@a+2)^0,7,c
  6774   000BE0  EFF4  F005         	goto	i1u456_21
  6775   000BE4  EFF6  F005         	goto	i1u456_20
  6776   000BE8                     i1u456_21:
  6777   000BE8  EFF7  F005         	goto	i1l3712
  6778   000BEC                     i1u456_20:
  6779   000BEC  804E               	bsf	i1___fladd@aexp^0,0,c
  6780   000BEE                     i1l3712:
  6781   000BEE  504E               	movf	i1___fladd@aexp^0,w,c
  6782   000BF0  B4D8               	btfsc	status,2,c
  6783   000BF2  EFFD  F005         	goto	i1u457_21
  6784   000BF6  EFFF  F005         	goto	i1u457_20
  6785   000BFA                     i1u457_21:
  6786   000BFA  EF13  F006         	goto	i1l3722
  6787   000BFE                     i1u457_20:
  6788   000BFE  284E               	incf	i1___fladd@aexp^0,w,c
  6789   000C00  A4D8               	btfss	status,2,c
  6790   000C02  EF05  F006         	goto	i1u458_21
  6791   000C06  EF07  F006         	goto	i1u458_20
  6792   000C0A                     i1u458_21:
  6793   000C0A  EF0F  F006         	goto	i1l3718
  6794   000C0E                     i1u458_20:
  6795   000C0E  0E00               	movlw	0
  6796   000C10  6E45               	movwf	i1___fladd@a^0,c
  6797   000C12  0E00               	movlw	0
  6798   000C14  6E46               	movwf	(i1___fladd@a+1)^0,c
  6799   000C16  0E00               	movlw	0
  6800   000C18  6E47               	movwf	(i1___fladd@a+2)^0,c
  6801   000C1A  0E00               	movlw	0
  6802   000C1C  6E48               	movwf	(i1___fladd@a+3)^0,c
  6803   000C1E                     i1l3718:
  6804   000C1E  8E47               	bsf	(i1___fladd@a+2)^0,7,c
  6805   000C20  6A48               	clrf	(i1___fladd@a+3)^0,c
  6806   000C22  EF1B  F006         	goto	i1l3724
  6807   000C26                     i1l3722:
  6808   000C26  0E00               	movlw	0
  6809   000C28  6E45               	movwf	i1___fladd@a^0,c
  6810   000C2A  0E00               	movlw	0
  6811   000C2C  6E46               	movwf	(i1___fladd@a+1)^0,c
  6812   000C2E  0E00               	movlw	0
  6813   000C30  6E47               	movwf	(i1___fladd@a+2)^0,c
  6814   000C32  0E00               	movlw	0
  6815   000C34  6E48               	movwf	(i1___fladd@a+3)^0,c
  6816   000C36                     i1l3724:
  6817   000C36  504F               	movf	i1___fladd@bexp^0,w,c
  6818   000C38  5C4E               	subwf	i1___fladd@aexp^0,w,c
  6819   000C3A  B0D8               	btfsc	status,0,c
  6820   000C3C  EF22  F006         	goto	i1u459_21
  6821   000C40  EF24  F006         	goto	i1u459_20
  6822   000C44                     i1u459_21:
  6823   000C44  EF4B  F006         	goto	i1l3760
  6824   000C48                     i1u459_20:
  6825   000C48  AC4D               	btfss	i1___fladd@signs^0,6,c
  6826   000C4A  EF29  F006         	goto	i1u460_21
  6827   000C4E  EF2B  F006         	goto	i1u460_20
  6828   000C52                     i1u460_21:
  6829   000C52  EF2D  F006         	goto	i1l3730
  6830   000C56                     i1u460_20:
  6831   000C56  0E80               	movlw	128
  6832   000C58  1A4D               	xorwf	i1___fladd@signs^0,f,c
  6833   000C5A                     i1l3730:
  6834   000C5A  C04F  F050         	movff	i1___fladd@bexp,i1___fladd@grs
  6835   000C5E  C04E  F04F         	movff	i1___fladd@aexp,i1___fladd@bexp
  6836   000C62  C050  F04E         	movff	i1___fladd@grs,i1___fladd@aexp
  6837   000C66  C041  F050         	movff	i1___fladd@b,i1___fladd@grs
  6838   000C6A  C045  F041         	movff	i1___fladd@a,i1___fladd@b
  6839   000C6E  C050  F045         	movff	i1___fladd@grs,i1___fladd@a
  6840   000C72  C042  F050         	movff	i1___fladd@b+1,i1___fladd@grs
  6841   000C76  C046  F042         	movff	i1___fladd@a+1,i1___fladd@b+1
  6842   000C7A  C050  F046         	movff	i1___fladd@grs,i1___fladd@a+1
  6843   000C7E  C043  F050         	movff	i1___fladd@b+2,i1___fladd@grs
  6844   000C82  C047  F043         	movff	i1___fladd@a+2,i1___fladd@b+2
  6845   000C86  C050  F047         	movff	i1___fladd@grs,i1___fladd@a+2
  6846   000C8A  C044  F050         	movff	i1___fladd@b+3,i1___fladd@grs
  6847   000C8E  C048  F044         	movff	i1___fladd@a+3,i1___fladd@b+3
  6848   000C92  C050  F048         	movff	i1___fladd@grs,i1___fladd@a+3
  6849   000C96                     i1l3760:
  6850   000C96  6A50               	clrf	i1___fladd@grs^0,c
  6851   000C98  504F               	movf	i1___fladd@bexp^0,w,c
  6852   000C9A  C04E  F049         	movff	i1___fladd@aexp,??i1___fladd
  6853   000C9E  6A4A               	clrf	(??i1___fladd+1)^0,c
  6854   000CA0  5E49               	subwf	??i1___fladd^0,f,c
  6855   000CA2  0E00               	movlw	0
  6856   000CA4  5A4A               	subwfb	(??i1___fladd+1)^0,f,c
  6857   000CA6  BE4A               	btfsc	(??i1___fladd+1)^0,7,c
  6858   000CA8  EF5F  F006         	goto	i1u461_21
  6859   000CAC  504A               	movf	(??i1___fladd+1)^0,w,c
  6860   000CAE  E109               	bnz	i1u461_20
  6861   000CB0  0E1A               	movlw	26
  6862   000CB2  5C49               	subwf	??i1___fladd^0,w,c
  6863   000CB4  A0D8               	btfss	status,0,c
  6864   000CB6  EF5F  F006         	goto	i1u461_21
  6865   000CBA  EF61  F006         	goto	i1u461_20
  6866   000CBE                     i1u461_21:
  6867   000CBE  EF98  F006         	goto	i1l849
  6868   000CC2                     i1u461_20:
  6869   000CC2  5041               	movf	i1___fladd@b^0,w,c
  6870   000CC4  1042               	iorwf	(i1___fladd@b+1)^0,w,c
  6871   000CC6  1043               	iorwf	(i1___fladd@b+2)^0,w,c
  6872   000CC8  1044               	iorwf	(i1___fladd@b+3)^0,w,c
  6873   000CCA  A4D8               	btfss	status,2,c
  6874   000CCC  EF6A  F006         	goto	i1u462_21
  6875   000CD0  EF6D  F006         	goto	i1u462_20
  6876   000CD4                     i1u462_21:
  6877   000CD4  0E01               	movlw	1
  6878   000CD6  EF6E  F006         	goto	i1u463_20
  6879   000CDA                     i1u462_20:
  6880   000CDA  0E00               	movlw	0
  6881   000CDC                     i1u463_20:
  6882   000CDC  6E50               	movwf	i1___fladd@grs^0,c
  6883   000CDE  0E00               	movlw	0
  6884   000CE0  6E41               	movwf	i1___fladd@b^0,c
  6885   000CE2  0E00               	movlw	0
  6886   000CE4  6E42               	movwf	(i1___fladd@b+1)^0,c
  6887   000CE6  0E00               	movlw	0
  6888   000CE8  6E43               	movwf	(i1___fladd@b+2)^0,c
  6889   000CEA  0E00               	movlw	0
  6890   000CEC  6E44               	movwf	(i1___fladd@b+3)^0,c
  6891   000CEE  C04E  F04F         	movff	i1___fladd@aexp,i1___fladd@bexp
  6892   000CF2  EFA1  F006         	goto	i1l848
  6893   000CF6                     i1l850:
  6894   000CF6  A050               	btfss	i1___fladd@grs^0,0,c
  6895   000CF8  EF80  F006         	goto	i1u464_21
  6896   000CFC  EF82  F006         	goto	i1u464_20
  6897   000D00                     i1u464_21:
  6898   000D00  EF88  F006         	goto	i1l3770
  6899   000D04                     i1u464_20:
  6900   000D04  90D8               	bcf	status,0,c
  6901   000D06  3050               	rrcf	i1___fladd@grs^0,w,c
  6902   000D08  0901               	iorlw	1
  6903   000D0A  6E50               	movwf	i1___fladd@grs^0,c
  6904   000D0C  EF8A  F006         	goto	i1l3772
  6905   000D10                     i1l3770:
  6906   000D10  90D8               	bcf	status,0,c
  6907   000D12  3250               	rrcf	i1___fladd@grs^0,f,c
  6908   000D14                     i1l3772:
  6909   000D14  A041               	btfss	i1___fladd@b^0,0,c
  6910   000D16  EF8F  F006         	goto	i1u465_21
  6911   000D1A  EF91  F006         	goto	i1u465_20
  6912   000D1E                     i1u465_21:
  6913   000D1E  EF92  F006         	goto	i1l3776
  6914   000D22                     i1u465_20:
  6915   000D22  8E50               	bsf	i1___fladd@grs^0,7,c
  6916   000D24                     i1l3776:
  6917   000D24  3444               	rlcf	(i1___fladd@b+3)^0,w,c
  6918   000D26  3244               	rrcf	(i1___fladd@b+3)^0,f,c
  6919   000D28  3243               	rrcf	(i1___fladd@b+2)^0,f,c
  6920   000D2A  3242               	rrcf	(i1___fladd@b+1)^0,f,c
  6921   000D2C  3241               	rrcf	i1___fladd@b^0,f,c
  6922   000D2E  2A4F               	incf	i1___fladd@bexp^0,f,c
  6923   000D30                     i1l849:
  6924   000D30  504E               	movf	i1___fladd@aexp^0,w,c
  6925   000D32  5C4F               	subwf	i1___fladd@bexp^0,w,c
  6926   000D34  A0D8               	btfss	status,0,c
  6927   000D36  EF9F  F006         	goto	i1u466_21
  6928   000D3A  EFA1  F006         	goto	i1u466_20
  6929   000D3E                     i1u466_21:
  6930   000D3E  EF7B  F006         	goto	i1l850
  6931   000D42                     i1u466_20:
  6932   000D42                     i1l848:
  6933   000D42  BC4D               	btfsc	i1___fladd@signs^0,6,c
  6934   000D44  EFA6  F006         	goto	i1u467_21
  6935   000D48  EFA8  F006         	goto	i1u467_20
  6936   000D4C                     i1u467_21:
  6937   000D4C  EFE8  F006         	goto	i1l3804
  6938   000D50                     i1u467_20:
  6939   000D50  504F               	movf	i1___fladd@bexp^0,w,c
  6940   000D52  A4D8               	btfss	status,2,c
  6941   000D54  EFAE  F006         	goto	i1u468_21
  6942   000D58  EFB0  F006         	goto	i1u468_20
  6943   000D5C                     i1u468_21:
  6944   000D5C  EFBA  F006         	goto	i1l3786
  6945   000D60                     i1u468_20:
  6946   000D60  0E00               	movlw	0
  6947   000D62  6E41               	movwf	?i1___fladd^0,c
  6948   000D64  0E00               	movlw	0
  6949   000D66  6E42               	movwf	(?i1___fladd+1)^0,c
  6950   000D68  0E00               	movlw	0
  6951   000D6A  6E43               	movwf	(?i1___fladd+2)^0,c
  6952   000D6C  0E00               	movlw	0
  6953   000D6E  6E44               	movwf	(?i1___fladd+3)^0,c
  6954   000D70  EF07  F008         	goto	i1l857
  6955   000D74                     i1l3786:
  6956   000D74  5045               	movf	i1___fladd@a^0,w,c
  6957   000D76  2641               	addwf	i1___fladd@b^0,f,c
  6958   000D78  5046               	movf	(i1___fladd@a+1)^0,w,c
  6959   000D7A  2242               	addwfc	(i1___fladd@b+1)^0,f,c
  6960   000D7C  5047               	movf	(i1___fladd@a+2)^0,w,c
  6961   000D7E  2243               	addwfc	(i1___fladd@b+2)^0,f,c
  6962   000D80  5048               	movf	(i1___fladd@a+3)^0,w,c
  6963   000D82  2244               	addwfc	(i1___fladd@b+3)^0,f,c
  6964   000D84  A044               	btfss	(i1___fladd@b+3)^0,0,c
  6965   000D86  EFC7  F006         	goto	i1u469_21
  6966   000D8A  EFC9  F006         	goto	i1u469_20
  6967   000D8E                     i1u469_21:
  6968   000D8E  EF75  F007         	goto	i1l862
  6969   000D92                     i1u469_20:
  6970   000D92  A050               	btfss	i1___fladd@grs^0,0,c
  6971   000D94  EFCE  F006         	goto	i1u470_21
  6972   000D98  EFD0  F006         	goto	i1u470_20
  6973   000D9C                     i1u470_21:
  6974   000D9C  EFD6  F006         	goto	i1l3794
  6975   000DA0                     i1u470_20:
  6976   000DA0  90D8               	bcf	status,0,c
  6977   000DA2  3050               	rrcf	i1___fladd@grs^0,w,c
  6978   000DA4  0901               	iorlw	1
  6979   000DA6  6E50               	movwf	i1___fladd@grs^0,c
  6980   000DA8  EFD8  F006         	goto	i1l3796
  6981   000DAC                     i1l3794:
  6982   000DAC  90D8               	bcf	status,0,c
  6983   000DAE  3250               	rrcf	i1___fladd@grs^0,f,c
  6984   000DB0                     i1l3796:
  6985   000DB0  A041               	btfss	i1___fladd@b^0,0,c
  6986   000DB2  EFDD  F006         	goto	i1u471_21
  6987   000DB6  EFDF  F006         	goto	i1u471_20
  6988   000DBA                     i1u471_21:
  6989   000DBA  EFE0  F006         	goto	i1l3800
  6990   000DBE                     i1u471_20:
  6991   000DBE  8E50               	bsf	i1___fladd@grs^0,7,c
  6992   000DC0                     i1l3800:
  6993   000DC0  3444               	rlcf	(i1___fladd@b+3)^0,w,c
  6994   000DC2  3244               	rrcf	(i1___fladd@b+3)^0,f,c
  6995   000DC4  3243               	rrcf	(i1___fladd@b+2)^0,f,c
  6996   000DC6  3242               	rrcf	(i1___fladd@b+1)^0,f,c
  6997   000DC8  3241               	rrcf	i1___fladd@b^0,f,c
  6998   000DCA  2A4F               	incf	i1___fladd@bexp^0,f,c
  6999   000DCC  EF75  F007         	goto	i1l862
  7000   000DD0                     i1l3804:
  7001   000DD0  5045               	movf	i1___fladd@a^0,w,c
  7002   000DD2  5C41               	subwf	i1___fladd@b^0,w,c
  7003   000DD4  5046               	movf	(i1___fladd@a+1)^0,w,c
  7004   000DD6  5842               	subwfb	(i1___fladd@b+1)^0,w,c
  7005   000DD8  5047               	movf	(i1___fladd@a+2)^0,w,c
  7006   000DDA  5843               	subwfb	(i1___fladd@b+2)^0,w,c
  7007   000DDC  5044               	movf	(i1___fladd@b+3)^0,w,c
  7008   000DDE  0A80               	xorlw	128
  7009   000DE0  6E49               	movwf	??i1___fladd^0,c
  7010   000DE2  5048               	movf	(i1___fladd@a+3)^0,w,c
  7011   000DE4  0A80               	xorlw	128
  7012   000DE6  5849               	subwfb	??i1___fladd^0,w,c
  7013   000DE8  B0D8               	btfsc	status,0,c
  7014   000DEA  EFF9  F006         	goto	i1u472_21
  7015   000DEE  EFFB  F006         	goto	i1u472_20
  7016   000DF2                     i1u472_21:
  7017   000DF2  EF26  F007         	goto	i1l3814
  7018   000DF6                     i1u472_20:
  7019   000DF6  5041               	movf	i1___fladd@b^0,w,c
  7020   000DF8  5C45               	subwf	i1___fladd@a^0,w,c
  7021   000DFA  6E49               	movwf	??i1___fladd^0,c
  7022   000DFC  5042               	movf	(i1___fladd@b+1)^0,w,c
  7023   000DFE  5846               	subwfb	(i1___fladd@a+1)^0,w,c
  7024   000E00  6E4A               	movwf	(??i1___fladd+1)^0,c
  7025   000E02  5043               	movf	(i1___fladd@b+2)^0,w,c
  7026   000E04  5847               	subwfb	(i1___fladd@a+2)^0,w,c
  7027   000E06  6E4B               	movwf	(??i1___fladd+2)^0,c
  7028   000E08  5044               	movf	(i1___fladd@b+3)^0,w,c
  7029   000E0A  5848               	subwfb	(i1___fladd@a+3)^0,w,c
  7030   000E0C  6E4C               	movwf	(??i1___fladd+3)^0,c
  7031   000E0E  0EFF               	movlw	255
  7032   000E10  2449               	addwf	??i1___fladd^0,w,c
  7033   000E12  6E41               	movwf	i1___fladd@b^0,c
  7034   000E14  0EFF               	movlw	255
  7035   000E16  204A               	addwfc	(??i1___fladd+1)^0,w,c
  7036   000E18  6E42               	movwf	(i1___fladd@b+1)^0,c
  7037   000E1A  0EFF               	movlw	255
  7038   000E1C  204B               	addwfc	(??i1___fladd+2)^0,w,c
  7039   000E1E  6E43               	movwf	(i1___fladd@b+2)^0,c
  7040   000E20  0EFF               	movlw	255
  7041   000E22  204C               	addwfc	(??i1___fladd+3)^0,w,c
  7042   000E24  6E44               	movwf	(i1___fladd@b+3)^0,c
  7043   000E26  0E80               	movlw	128
  7044   000E28  1A4D               	xorwf	i1___fladd@signs^0,f,c
  7045   000E2A  6C50               	negf	i1___fladd@grs^0,c
  7046   000E2C  5050               	movf	i1___fladd@grs^0,w,c
  7047   000E2E  A4D8               	btfss	status,2,c
  7048   000E30  EF1C  F007         	goto	i1u473_21
  7049   000E34  EF1E  F007         	goto	i1u473_20
  7050   000E38                     i1u473_21:
  7051   000E38  EF2E  F007         	goto	i1l865
  7052   000E3C                     i1u473_20:
  7053   000E3C  0E01               	movlw	1
  7054   000E3E  2641               	addwf	i1___fladd@b^0,f,c
  7055   000E40  0E00               	movlw	0
  7056   000E42  2242               	addwfc	(i1___fladd@b+1)^0,f,c
  7057   000E44  2243               	addwfc	(i1___fladd@b+2)^0,f,c
  7058   000E46  2244               	addwfc	(i1___fladd@b+3)^0,f,c
  7059   000E48  EF2E  F007         	goto	i1l865
  7060   000E4C                     i1l3814:
  7061   000E4C  5045               	movf	i1___fladd@a^0,w,c
  7062   000E4E  5E41               	subwf	i1___fladd@b^0,f,c
  7063   000E50  5046               	movf	(i1___fladd@a+1)^0,w,c
  7064   000E52  5A42               	subwfb	(i1___fladd@b+1)^0,f,c
  7065   000E54  5047               	movf	(i1___fladd@a+2)^0,w,c
  7066   000E56  5A43               	subwfb	(i1___fladd@b+2)^0,f,c
  7067   000E58  5048               	movf	(i1___fladd@a+3)^0,w,c
  7068   000E5A  5A44               	subwfb	(i1___fladd@b+3)^0,f,c
  7069   000E5C                     i1l865:
  7070   000E5C  5041               	movf	i1___fladd@b^0,w,c
  7071   000E5E  1042               	iorwf	(i1___fladd@b+1)^0,w,c
  7072   000E60  1043               	iorwf	(i1___fladd@b+2)^0,w,c
  7073   000E62  1044               	iorwf	(i1___fladd@b+3)^0,w,c
  7074   000E64  A4D8               	btfss	status,2,c
  7075   000E66  EF37  F007         	goto	i1u474_21
  7076   000E6A  EF39  F007         	goto	i1u474_20
  7077   000E6E                     i1u474_21:
  7078   000E6E  EF6E  F007         	goto	i1l3838
  7079   000E72                     i1u474_20:
  7080   000E72  5050               	movf	i1___fladd@grs^0,w,c
  7081   000E74  A4D8               	btfss	status,2,c
  7082   000E76  EF3F  F007         	goto	i1u475_21
  7083   000E7A  EF41  F007         	goto	i1u475_20
  7084   000E7E                     i1u475_21:
  7085   000E7E  EF6E  F007         	goto	i1l3838
  7086   000E82                     i1u475_20:
  7087   000E82  0E00               	movlw	0
  7088   000E84  6E41               	movwf	?i1___fladd^0,c
  7089   000E86  0E00               	movlw	0
  7090   000E88  6E42               	movwf	(?i1___fladd+1)^0,c
  7091   000E8A  0E00               	movlw	0
  7092   000E8C  6E43               	movwf	(?i1___fladd+2)^0,c
  7093   000E8E  0E00               	movlw	0
  7094   000E90  6E44               	movwf	(?i1___fladd+3)^0,c
  7095   000E92  EF07  F008         	goto	i1l857
  7096   000E96                     i1l3822:
  7097   000E96  90D8               	bcf	status,0,c
  7098   000E98  3641               	rlcf	i1___fladd@b^0,f,c
  7099   000E9A  3642               	rlcf	(i1___fladd@b+1)^0,f,c
  7100   000E9C  3643               	rlcf	(i1___fladd@b+2)^0,f,c
  7101   000E9E  3644               	rlcf	(i1___fladd@b+3)^0,f,c
  7102   000EA0  AE50               	btfss	i1___fladd@grs^0,7,c
  7103   000EA2  EF55  F007         	goto	i1u476_21
  7104   000EA6  EF57  F007         	goto	i1u476_20
  7105   000EAA                     i1u476_21:
  7106   000EAA  EF58  F007         	goto	i1l3828
  7107   000EAE                     i1u476_20:
  7108   000EAE  8041               	bsf	i1___fladd@b^0,0,c
  7109   000EB0                     i1l3828:
  7110   000EB0  A050               	btfss	i1___fladd@grs^0,0,c
  7111   000EB2  EF5D  F007         	goto	i1u477_21
  7112   000EB6  EF5F  F007         	goto	i1u477_20
  7113   000EBA                     i1u477_21:
  7114   000EBA  EF63  F007         	goto	i1l3832
  7115   000EBE                     i1u477_20:
  7116   000EBE  80D8               	bsf	status,0,c
  7117   000EC0  3650               	rlcf	i1___fladd@grs^0,f,c
  7118   000EC2  EF65  F007         	goto	i1l3834
  7119   000EC6                     i1l3832:
  7120   000EC6  90D8               	bcf	status,0,c
  7121   000EC8  3650               	rlcf	i1___fladd@grs^0,f,c
  7122   000ECA                     i1l3834:
  7123   000ECA  504F               	movf	i1___fladd@bexp^0,w,c
  7124   000ECC  B4D8               	btfsc	status,2,c
  7125   000ECE  EF6B  F007         	goto	i1u478_21
  7126   000ED2  EF6D  F007         	goto	i1u478_20
  7127   000ED6                     i1u478_21:
  7128   000ED6  EF6E  F007         	goto	i1l3838
  7129   000EDA                     i1u478_20:
  7130   000EDA  064F               	decf	i1___fladd@bexp^0,f,c
  7131   000EDC                     i1l3838:
  7132   000EDC  AE43               	btfss	(i1___fladd@b+2)^0,7,c
  7133   000EDE  EF73  F007         	goto	i1u479_21
  7134   000EE2  EF75  F007         	goto	i1u479_20
  7135   000EE6                     i1u479_21:
  7136   000EE6  EF4B  F007         	goto	i1l3822
  7137   000EEA                     i1u479_20:
  7138   000EEA                     i1l862:
  7139   000EEA  6A4E               	clrf	i1___fladd@aexp^0,c
  7140   000EEC  AE50               	btfss	i1___fladd@grs^0,7,c
  7141   000EEE  EF7B  F007         	goto	i1u480_21
  7142   000EF2  EF7D  F007         	goto	i1u480_20
  7143   000EF6                     i1u480_21:
  7144   000EF6  EF95  F007         	goto	i1l874
  7145   000EFA                     i1u480_20:
  7146   000EFA  C050  F049         	movff	i1___fladd@grs,??i1___fladd
  7147   000EFE  0E7F               	movlw	127
  7148   000F00  1649               	andwf	??i1___fladd^0,f,c
  7149   000F02  B4D8               	btfsc	status,2,c
  7150   000F04  EF86  F007         	goto	i1u481_21
  7151   000F08  EF88  F007         	goto	i1u481_20
  7152   000F0C                     i1u481_21:
  7153   000F0C  EF8C  F007         	goto	i1l875
  7154   000F10                     i1u481_20:
  7155   000F10                     i1l3842:
  7156   000F10  0E01               	movlw	1
  7157   000F12  6E4E               	movwf	i1___fladd@aexp^0,c
  7158   000F14  EF95  F007         	goto	i1l874
  7159   000F18                     i1l875:
  7160   000F18  A041               	btfss	i1___fladd@b^0,0,c
  7161   000F1A  EF91  F007         	goto	i1u482_21
  7162   000F1E  EF93  F007         	goto	i1u482_20
  7163   000F22                     i1u482_21:
  7164   000F22  EF95  F007         	goto	i1l874
  7165   000F26                     i1u482_20:
  7166   000F26  EF88  F007         	goto	i1l3842
  7167   000F2A                     i1l874:
  7168   000F2A  504E               	movf	i1___fladd@aexp^0,w,c
  7169   000F2C  B4D8               	btfsc	status,2,c
  7170   000F2E  EF9B  F007         	goto	i1u483_21
  7171   000F32  EF9D  F007         	goto	i1u483_20
  7172   000F36                     i1u483_21:
  7173   000F36  EFC8  F007         	goto	i1l3854
  7174   000F3A                     i1u483_20:
  7175   000F3A  0E01               	movlw	1
  7176   000F3C  2641               	addwf	i1___fladd@b^0,f,c
  7177   000F3E  0E00               	movlw	0
  7178   000F40  2242               	addwfc	(i1___fladd@b+1)^0,f,c
  7179   000F42  2243               	addwfc	(i1___fladd@b+2)^0,f,c
  7180   000F44  2244               	addwfc	(i1___fladd@b+3)^0,f,c
  7181   000F46  A044               	btfss	(i1___fladd@b+3)^0,0,c
  7182   000F48  EFA8  F007         	goto	i1u484_21
  7183   000F4C  EFAA  F007         	goto	i1u484_20
  7184   000F50                     i1u484_21:
  7185   000F50  EFC8  F007         	goto	i1l3854
  7186   000F54                     i1u484_20:
  7187   000F54  C041  F049         	movff	i1___fladd@b,??i1___fladd
  7188   000F58  C042  F04A         	movff	i1___fladd@b+1,??i1___fladd+1
  7189   000F5C  C043  F04B         	movff	i1___fladd@b+2,??i1___fladd+2
  7190   000F60  C044  F04C         	movff	i1___fladd@b+3,??i1___fladd+3
  7191   000F64  344C               	rlcf	(??i1___fladd+3)^0,w,c
  7192   000F66  324C               	rrcf	(??i1___fladd+3)^0,f,c
  7193   000F68  324B               	rrcf	(??i1___fladd+2)^0,f,c
  7194   000F6A  324A               	rrcf	(??i1___fladd+1)^0,f,c
  7195   000F6C  3249               	rrcf	??i1___fladd^0,f,c
  7196   000F6E  C049  F041         	movff	??i1___fladd,i1___fladd@b
  7197   000F72  C04A  F042         	movff	??i1___fladd+1,i1___fladd@b+1
  7198   000F76  C04B  F043         	movff	??i1___fladd+2,i1___fladd@b+2
  7199   000F7A  C04C  F044         	movff	??i1___fladd+3,i1___fladd@b+3
  7200   000F7E  284F               	incf	i1___fladd@bexp^0,w,c
  7201   000F80  B4D8               	btfsc	status,2,c
  7202   000F82  EFC5  F007         	goto	i1u485_21
  7203   000F86  EFC7  F007         	goto	i1u485_20
  7204   000F8A                     i1u485_21:
  7205   000F8A  EFC8  F007         	goto	i1l3854
  7206   000F8E                     i1u485_20:
  7207   000F8E  2A4F               	incf	i1___fladd@bexp^0,f,c
  7208   000F90                     i1l3854:
  7209   000F90  284F               	incf	i1___fladd@bexp^0,w,c
  7210   000F92  B4D8               	btfsc	status,2,c
  7211   000F94  EFCE  F007         	goto	i1u486_21
  7212   000F98  EFD0  F007         	goto	i1u486_20
  7213   000F9C                     i1u486_21:
  7214   000F9C  EFD8  F007         	goto	i1l3858
  7215   000FA0                     i1u486_20:
  7216   000FA0  504F               	movf	i1___fladd@bexp^0,w,c
  7217   000FA2  A4D8               	btfss	status,2,c
  7218   000FA4  EFD6  F007         	goto	i1u487_21
  7219   000FA8  EFD8  F007         	goto	i1u487_20
  7220   000FAC                     i1u487_21:
  7221   000FAC  EFE9  F007         	goto	i1l881
  7222   000FB0                     i1u487_20:
  7223   000FB0                     i1l3858:
  7224   000FB0  0E00               	movlw	0
  7225   000FB2  6E41               	movwf	i1___fladd@b^0,c
  7226   000FB4  0E00               	movlw	0
  7227   000FB6  6E42               	movwf	(i1___fladd@b+1)^0,c
  7228   000FB8  0E00               	movlw	0
  7229   000FBA  6E43               	movwf	(i1___fladd@b+2)^0,c
  7230   000FBC  0E00               	movlw	0
  7231   000FBE  6E44               	movwf	(i1___fladd@b+3)^0,c
  7232   000FC0  504F               	movf	i1___fladd@bexp^0,w,c
  7233   000FC2  A4D8               	btfss	status,2,c
  7234   000FC4  EFE6  F007         	goto	i1u488_21
  7235   000FC8  EFE8  F007         	goto	i1u488_20
  7236   000FCC                     i1u488_21:
  7237   000FCC  EFE9  F007         	goto	i1l881
  7238   000FD0                     i1u488_20:
  7239   000FD0  6A4D               	clrf	i1___fladd@signs^0,c
  7240   000FD2                     i1l881:
  7241   000FD2  A04F               	btfss	i1___fladd@bexp^0,0,c
  7242   000FD4  EFEE  F007         	goto	i1u489_21
  7243   000FD8  EFF0  F007         	goto	i1u489_20
  7244   000FDC                     i1u489_21:
  7245   000FDC  EFF3  F007         	goto	i1l3864
  7246   000FE0                     i1u489_20:
  7247   000FE0  8E43               	bsf	(i1___fladd@b+2)^0,7,c
  7248   000FE2  EFF4  F007         	goto	i1l3866
  7249   000FE6                     i1l3864:
  7250   000FE6  9E43               	bcf	(i1___fladd@b+2)^0,7,c
  7251   000FE8                     i1l3866:
  7252   000FE8  90D8               	bcf	status,0,c
  7253   000FEA  304F               	rrcf	i1___fladd@bexp^0,w,c
  7254   000FEC  6E44               	movwf	(i1___fladd@b+3)^0,c
  7255   000FEE  AE4D               	btfss	i1___fladd@signs^0,7,c
  7256   000FF0  EFFC  F007         	goto	i1u490_21
  7257   000FF4  EFFE  F007         	goto	i1u490_20
  7258   000FF8                     i1u490_21:
  7259   000FF8  EFFF  F007         	goto	i1l3872
  7260   000FFC                     i1u490_20:
  7261   000FFC  8E44               	bsf	(i1___fladd@b+3)^0,7,c
  7262   000FFE                     i1l3872:
  7263   000FFE  C041  F041         	movff	i1___fladd@b,?i1___fladd
  7264   001002  C042  F042         	movff	i1___fladd@b+1,?i1___fladd+1
  7265   001006  C043  F043         	movff	i1___fladd@b+2,?i1___fladd+2
  7266   00100A  C044  F044         	movff	i1___fladd@b+3,?i1___fladd+3
  7267   00100E                     i1l857:
  7268   00100E  0012               	return		;funcret
  7269   001010                     __end_ofi1___fladd:
  7270                           	callstack 0
  7271                           
  7272 ;; *************** function i1_PWMSetDutyCycle *****************
  7273 ;; Defined at:
  7274 ;;		line 29 in file "utils/ccp.c"
  7275 ;; Parameters:    Size  Location     Type
  7276 ;;  duty_cycle_u    4   74[COMRAM] unsigned char 
  7277 ;; Auto vars:     Size  Location     Type
  7278 ;;  val             8   93[COMRAM] long long 
  7279 ;;  prescaler       2   91[COMRAM] int 
  7280 ;; Return value:  Size  Location     Type
  7281 ;;                  1    wreg      void 
  7282 ;; Registers used:
  7283 ;;		wreg, status,2, status,0, prodl, prodh, cstack
  7284 ;; Tracked objects:
  7285 ;;		On entry : 0/0
  7286 ;;		On exit  : 0/0
  7287 ;;		Unchanged: 0/0
  7288 ;; Data sizes:     COMRAM   BANK0   BANK1   BANK2   BANK3   BANK4   BANK5
  7289 ;;      Params:         4       0       0       0       0       0       0
  7290 ;;      Locals:        14       0       0       0       0       0       0
  7291 ;;      Temps:          9       0       0       0       0       0       0
  7292 ;;      Totals:        27       0       0       0       0       0       0
  7293 ;;Total ram usage:       27 bytes
  7294 ;; Hardware stack levels used: 1
  7295 ;; Hardware stack levels required when called: 2
  7296 ;; This function calls:
  7297 ;;		i1_Timer2GetPrescaler
  7298 ;;		i1___fldiv
  7299 ;;		i1___flmul
  7300 ;;		i1___fltol
  7301 ;;		i1___xxtofl
  7302 ;; This function is called by:
  7303 ;;		_LowIsr
  7304 ;; This function uses a non-reentrant model
  7305 ;;
  7306                           
  7307                           	psect	text25
  7308   00273E                     __ptext25:
  7309                           	callstack 0
  7310   00273E                     i1_PWMSetDutyCycle:
  7311                           	callstack 22
  7312   00273E                     
  7313                           ;utils/ccp.c: 36:     PWMDutyCycle = duty_cycle_us;
  7314   00273E  C04B  F06F         	movff	i1PWMSetDutyCycle@duty_cycle_us,_PWMDutyCycle
  7315   002742  C04C  F070         	movff	i1PWMSetDutyCycle@duty_cycle_us+1,_PWMDutyCycle+1
  7316   002746  C04D  F071         	movff	i1PWMSetDutyCycle@duty_cycle_us+2,_PWMDutyCycle+2
  7317   00274A  C04E  F072         	movff	i1PWMSetDutyCycle@duty_cycle_us+3,_PWMDutyCycle+3
  7318   00274E                     
  7319                           ;utils/ccp.c: 37:     int prescaler = Timer2GetPrescaler();
  7320   00274E  ECB3  F018         	call	i1_Timer2GetPrescaler	;wreg free
  7321   002752  C001  F05C         	movff	?i1_Timer2GetPrescaler,i1PWMSetDutyCycle@prescaler
  7322   002756  C002  F05D         	movff	?i1_Timer2GetPrescaler+1,i1PWMSetDutyCycle@prescaler+1
  7323   00275A                     
  7324                           ;utils/ccp.c: 38:     long long val = (PWMDutyCycle * 4000000 / 1000000) / prescaler;
  7325   00275A  0E00               	movlw	0
  7326   00275C  6E2C               	movwf	i1___fldiv@a^0,c
  7327   00275E  0E24               	movlw	36
  7328   002760  6E2D               	movwf	(i1___fldiv@a+1)^0,c
  7329   002762  0E74               	movlw	116
  7330   002764  6E2E               	movwf	(i1___fldiv@a+2)^0,c
  7331   002766  0E49               	movlw	73
  7332   002768  6E2F               	movwf	(i1___fldiv@a+3)^0,c
  7333   00276A  0E00               	movlw	0
  7334   00276C  6E13               	movwf	i1___flmul@a^0,c
  7335   00276E  0E24               	movlw	36
  7336   002770  6E14               	movwf	(i1___flmul@a+1)^0,c
  7337   002772  0E74               	movlw	116
  7338   002774  6E15               	movwf	(i1___flmul@a+2)^0,c
  7339   002776  0E4A               	movlw	74
  7340   002778  6E16               	movwf	(i1___flmul@a+3)^0,c
  7341   00277A  C06F  F00F         	movff	_PWMDutyCycle,i1___flmul@b
  7342   00277E  C070  F010         	movff	_PWMDutyCycle+1,i1___flmul@b+1
  7343   002782  C071  F011         	movff	_PWMDutyCycle+2,i1___flmul@b+2
  7344   002786  C072  F012         	movff	_PWMDutyCycle+3,i1___flmul@b+3
  7345   00278A  EC1C  F00A         	call	i1___flmul	;wreg free
  7346   00278E  C00F  F028         	movff	?i1___flmul,i1___fldiv@b
  7347   002792  C010  F029         	movff	?i1___flmul+1,i1___fldiv@b+1
  7348   002796  C011  F02A         	movff	?i1___flmul+2,i1___fldiv@b+2
  7349   00279A  C012  F02B         	movff	?i1___flmul+3,i1___fldiv@b+3
  7350   00279E  EC41  F00E         	call	i1___fldiv	;wreg free
  7351   0027A2  C028  F058         	movff	?i1___fldiv,i1_PWMSetDutyCycle$2193
  7352   0027A6  C029  F059         	movff	?i1___fldiv+1,i1_PWMSetDutyCycle$2193+1
  7353   0027AA  C02A  F05A         	movff	?i1___fldiv+2,i1_PWMSetDutyCycle$2193+2
  7354   0027AE  C02B  F05B         	movff	?i1___fldiv+3,i1_PWMSetDutyCycle$2193+3
  7355   0027B2                     
  7356                           ;utils/ccp.c: 38:     long long val = (PWMDutyCycle * 4000000 / 1000000) / prescaler;
  7357   0027B2  C05C  F001         	movff	i1PWMSetDutyCycle@prescaler,i1___xxtofl@val
  7358   0027B6  C05D  F002         	movff	i1PWMSetDutyCycle@prescaler+1,i1___xxtofl@val+1
  7359   0027BA  0E00               	movlw	0
  7360   0027BC  BE02               	btfsc	(i1___xxtofl@val+1)^0,7,c
  7361   0027BE  0EFF               	movlw	-1
  7362   0027C0  6E03               	movwf	(i1___xxtofl@val+2)^0,c
  7363   0027C2  6E04               	movwf	(i1___xxtofl@val+3)^0,c
  7364   0027C4  0E01               	movlw	1
  7365   0027C6  EC0E  F012         	call	i1___xxtofl
  7366   0027CA  C001  F02C         	movff	?i1___xxtofl,i1___fldiv@a
  7367   0027CE  C002  F02D         	movff	?i1___xxtofl+1,i1___fldiv@a+1
  7368   0027D2  C003  F02E         	movff	?i1___xxtofl+2,i1___fldiv@a+2
  7369   0027D6  C004  F02F         	movff	?i1___xxtofl+3,i1___fldiv@a+3
  7370   0027DA  C058  F028         	movff	i1_PWMSetDutyCycle$2193,i1___fldiv@b
  7371   0027DE  C059  F029         	movff	i1_PWMSetDutyCycle$2193+1,i1___fldiv@b+1
  7372   0027E2  C05A  F02A         	movff	i1_PWMSetDutyCycle$2193+2,i1___fldiv@b+2
  7373   0027E6  C05B  F02B         	movff	i1_PWMSetDutyCycle$2193+3,i1___fldiv@b+3
  7374   0027EA  EC41  F00E         	call	i1___fldiv	;wreg free
  7375   0027EE  C028  F041         	movff	?i1___fldiv,i1___fltol@f1
  7376   0027F2  C029  F042         	movff	?i1___fldiv+1,i1___fltol@f1+1
  7377   0027F6  C02A  F043         	movff	?i1___fldiv+2,i1___fltol@f1+2
  7378   0027FA  C02B  F044         	movff	?i1___fldiv+3,i1___fltol@f1+3
  7379   0027FE  EC02  F016         	call	i1___fltol	;wreg free
  7380   002802  C041  F04F         	movff	?i1___fltol,??i1_PWMSetDutyCycle
  7381   002806  C042  F050         	movff	?i1___fltol+1,??i1_PWMSetDutyCycle+1
  7382   00280A  C043  F051         	movff	?i1___fltol+2,??i1_PWMSetDutyCycle+2
  7383   00280E  C044  F052         	movff	?i1___fltol+3,??i1_PWMSetDutyCycle+3
  7384   002812  6A53               	clrf	(??i1_PWMSetDutyCycle+4)^0,c
  7385   002814  BE52               	btfsc	(??i1_PWMSetDutyCycle+3)^0,7,c
  7386   002816  6853               	setf	(??i1_PWMSetDutyCycle+4)^0,c
  7387   002818  C053  F054         	movff	??i1_PWMSetDutyCycle+4,??i1_PWMSetDutyCycle+5
  7388   00281C  C053  F055         	movff	??i1_PWMSetDutyCycle+4,??i1_PWMSetDutyCycle+6
  7389   002820  C053  F056         	movff	??i1_PWMSetDutyCycle+4,??i1_PWMSetDutyCycle+7
  7390   002824  C04F  F05E         	movff	??i1_PWMSetDutyCycle,i1PWMSetDutyCycle@val
  7391   002828  C050  F05F         	movff	??i1_PWMSetDutyCycle+1,i1PWMSetDutyCycle@val+1
  7392   00282C  C051  F060         	movff	??i1_PWMSetDutyCycle+2,i1PWMSetDutyCycle@val+2
  7393   002830  C052  F061         	movff	??i1_PWMSetDutyCycle+3,i1PWMSetDutyCycle@val+3
  7394   002834  C053  F062         	movff	??i1_PWMSetDutyCycle+4,i1PWMSetDutyCycle@val+4
  7395   002838  C054  F063         	movff	??i1_PWMSetDutyCycle+5,i1PWMSetDutyCycle@val+5
  7396   00283C  C055  F064         	movff	??i1_PWMSetDutyCycle+6,i1PWMSetDutyCycle@val+6
  7397   002840  C056  F065         	movff	??i1_PWMSetDutyCycle+7,i1PWMSetDutyCycle@val+7
  7398   002844                     
  7399                           ;utils/ccp.c: 39:     CCPR1L = (val >> 2) & 0xFF;
  7400   002844  0E02               	movlw	2
  7401   002846  6E4F               	movwf	??i1_PWMSetDutyCycle^0,c
  7402   002848  C05E  F050         	movff	i1PWMSetDutyCycle@val,??i1_PWMSetDutyCycle+1
  7403   00284C  C05F  F051         	movff	i1PWMSetDutyCycle@val+1,??i1_PWMSetDutyCycle+2
  7404   002850  C060  F052         	movff	i1PWMSetDutyCycle@val+2,??i1_PWMSetDutyCycle+3
  7405   002854  C061  F053         	movff	i1PWMSetDutyCycle@val+3,??i1_PWMSetDutyCycle+4
  7406   002858  C062  F054         	movff	i1PWMSetDutyCycle@val+4,??i1_PWMSetDutyCycle+5
  7407   00285C  C063  F055         	movff	i1PWMSetDutyCycle@val+5,??i1_PWMSetDutyCycle+6
  7408   002860  C064  F056         	movff	i1PWMSetDutyCycle@val+6,??i1_PWMSetDutyCycle+7
  7409   002864  C065  F057         	movff	i1PWMSetDutyCycle@val+7,??i1_PWMSetDutyCycle+8
  7410   002868                     i1u451_25:
  7411   002868  664F               	tstfsz	??i1_PWMSetDutyCycle^0,c
  7412   00286A  EF39  F014         	goto	i1u451_26
  7413   00286E  EF45  F014         	goto	i1u451_27
  7414   002872                     i1u451_26:
  7415   002872  3457               	rlcf	(??i1_PWMSetDutyCycle+8)^0,w,c
  7416   002874  3257               	rrcf	(??i1_PWMSetDutyCycle+8)^0,f,c
  7417   002876  3256               	rrcf	(??i1_PWMSetDutyCycle+7)^0,f,c
  7418   002878  3255               	rrcf	(??i1_PWMSetDutyCycle+6)^0,f,c
  7419   00287A  3254               	rrcf	(??i1_PWMSetDutyCycle+5)^0,f,c
  7420   00287C  3253               	rrcf	(??i1_PWMSetDutyCycle+4)^0,f,c
  7421   00287E  3252               	rrcf	(??i1_PWMSetDutyCycle+3)^0,f,c
  7422   002880  3251               	rrcf	(??i1_PWMSetDutyCycle+2)^0,f,c
  7423   002882  3250               	rrcf	(??i1_PWMSetDutyCycle+1)^0,f,c
  7424   002884  2E4F               	decfsz	??i1_PWMSetDutyCycle^0,f,c
  7425   002886  EF34  F014         	goto	i1u451_25
  7426   00288A                     i1u451_27:
  7427   00288A  5050               	movf	(??i1_PWMSetDutyCycle+1)^0,w,c
  7428   00288C  6EBE               	movwf	190,c	;volatile
  7429   00288E                     
  7430                           ;utils/ccp.c: 40:     CCP1CONbits.DC1B = (val & 0x03);
  7431   00288E  C05E  F04F         	movff	i1PWMSetDutyCycle@val,??i1_PWMSetDutyCycle
  7432   002892  0E03               	movlw	3
  7433   002894  164F               	andwf	??i1_PWMSetDutyCycle^0,f,c
  7434   002896  3A4F               	swapf	??i1_PWMSetDutyCycle^0,f,c
  7435   002898  50BD               	movf	189,w,c	;volatile
  7436   00289A  184F               	xorwf	??i1_PWMSetDutyCycle^0,w,c
  7437   00289C  0BCF               	andlw	-49
  7438   00289E  184F               	xorwf	??i1_PWMSetDutyCycle^0,w,c
  7439   0028A0  6EBD               	movwf	189,c	;volatile
  7440   0028A2  0012               	return		;funcret
  7441   0028A4                     __end_ofi1_PWMSetDutyCycle:
  7442                           	callstack 0
  7443                           
  7444 ;; *************** function i1___xxtofl *****************
  7445 ;; Defined at:
  7446 ;;		line 10 in file "/Applications/microchip/xc8/v2.50/pic/sources/c99/common/xxtofl.c"
  7447 ;; Parameters:    Size  Location     Type
  7448 ;;  sign            1    wreg     unsigned char 
  7449 ;;  val             4    0[COMRAM] long 
  7450 ;; Auto vars:     Size  Location     Type
  7451 ;;  sign            1    8[COMRAM] unsigned char 
  7452 ;;  arg             4   10[COMRAM] unsigned long 
  7453 ;;  exp             1    9[COMRAM] unsigned char 
  7454 ;; Return value:  Size  Location     Type
  7455 ;;                  4    0[COMRAM] unsigned char 
  7456 ;; Registers used:
  7457 ;;		wreg, status,2, status,0
  7458 ;; Tracked objects:
  7459 ;;		On entry : 0/0
  7460 ;;		On exit  : 0/0
  7461 ;;		Unchanged: 0/0
  7462 ;; Data sizes:     COMRAM   BANK0   BANK1   BANK2   BANK3   BANK4   BANK5
  7463 ;;      Params:         4       0       0       0       0       0       0
  7464 ;;      Locals:         6       0       0       0       0       0       0
  7465 ;;      Temps:          4       0       0       0       0       0       0
  7466 ;;      Totals:        14       0       0       0       0       0       0
  7467 ;;Total ram usage:       14 bytes
  7468 ;; Hardware stack levels used: 1
  7469 ;; Hardware stack levels required when called: 1
  7470 ;; This function calls:
  7471 ;;		Nothing
  7472 ;; This function is called by:
  7473 ;;		_LowIsr
  7474 ;;		i1_PWMSetDutyCycle
  7475 ;; This function uses a non-reentrant model
  7476 ;;
  7477                           
  7478                           	psect	text26
  7479   00241C                     __ptext26:
  7480                           	callstack 0
  7481   00241C                     i1___xxtofl:
  7482                           	callstack 23
  7483                           
  7484                           ;incstack = 0
  7485                           ;i1___xxtofl@sign stored from wreg
  7486   00241C  6E09               	movwf	i1___xxtofl@sign^0,c
  7487   00241E  5009               	movf	i1___xxtofl@sign^0,w,c
  7488   002420  B4D8               	btfsc	status,2,c
  7489   002422  EF15  F012         	goto	i1u422_21
  7490   002426  EF17  F012         	goto	i1u422_20
  7491   00242A                     i1u422_21:
  7492   00242A  EF39  F012         	goto	i1l975
  7493   00242E                     i1u422_20:
  7494   00242E  BE04               	btfsc	(i1___xxtofl@val+3)^0,7,c
  7495   002430  EF1E  F012         	goto	i1u423_20
  7496   002434  EF1C  F012         	goto	i1u423_21
  7497   002438                     i1u423_21:
  7498   002438  EF39  F012         	goto	i1l975
  7499   00243C                     i1u423_20:
  7500   00243C  C001  F005         	movff	i1___xxtofl@val,??i1___xxtofl
  7501   002440  C002  F006         	movff	i1___xxtofl@val+1,??i1___xxtofl+1
  7502   002444  C003  F007         	movff	i1___xxtofl@val+2,??i1___xxtofl+2
  7503   002448  C004  F008         	movff	i1___xxtofl@val+3,??i1___xxtofl+3
  7504   00244C  1E05               	comf	??i1___xxtofl^0,f,c
  7505   00244E  1E06               	comf	(??i1___xxtofl+1)^0,f,c
  7506   002450  1E07               	comf	(??i1___xxtofl+2)^0,f,c
  7507   002452  1E08               	comf	(??i1___xxtofl+3)^0,f,c
  7508   002454  2A05               	incf	??i1___xxtofl^0,f,c
  7509   002456  0E00               	movlw	0
  7510   002458  2206               	addwfc	(??i1___xxtofl+1)^0,f,c
  7511   00245A  2207               	addwfc	(??i1___xxtofl+2)^0,f,c
  7512   00245C  2208               	addwfc	(??i1___xxtofl+3)^0,f,c
  7513   00245E  C005  F00B         	movff	??i1___xxtofl,i1___xxtofl@arg
  7514   002462  C006  F00C         	movff	??i1___xxtofl+1,i1___xxtofl@arg+1
  7515   002466  C007  F00D         	movff	??i1___xxtofl+2,i1___xxtofl@arg+2
  7516   00246A  C008  F00E         	movff	??i1___xxtofl+3,i1___xxtofl@arg+3
  7517   00246E  EF41  F012         	goto	i1l3520
  7518   002472                     i1l975:
  7519   002472  C001  F00B         	movff	i1___xxtofl@val,i1___xxtofl@arg
  7520   002476  C002  F00C         	movff	i1___xxtofl@val+1,i1___xxtofl@arg+1
  7521   00247A  C003  F00D         	movff	i1___xxtofl@val+2,i1___xxtofl@arg+2
  7522   00247E  C004  F00E         	movff	i1___xxtofl@val+3,i1___xxtofl@arg+3
  7523   002482                     i1l3520:
  7524   002482  5001               	movf	i1___xxtofl@val^0,w,c
  7525   002484  1002               	iorwf	(i1___xxtofl@val+1)^0,w,c
  7526   002486  1003               	iorwf	(i1___xxtofl@val+2)^0,w,c
  7527   002488  1004               	iorwf	(i1___xxtofl@val+3)^0,w,c
  7528   00248A  A4D8               	btfss	status,2,c
  7529   00248C  EF4A  F012         	goto	i1u424_21
  7530   002490  EF4C  F012         	goto	i1u424_20
  7531   002494                     i1u424_21:
  7532   002494  EF56  F012         	goto	i1l3526
  7533   002498                     i1u424_20:
  7534   002498  0E00               	movlw	0
  7535   00249A  6E01               	movwf	?i1___xxtofl^0,c
  7536   00249C  0E00               	movlw	0
  7537   00249E  6E02               	movwf	(?i1___xxtofl+1)^0,c
  7538   0024A0  0E00               	movlw	0
  7539   0024A2  6E03               	movwf	(?i1___xxtofl+2)^0,c
  7540   0024A4  0E00               	movlw	0
  7541   0024A6  6E04               	movwf	(?i1___xxtofl+3)^0,c
  7542   0024A8  EFE7  F012         	goto	i1l978
  7543   0024AC                     i1l3526:
  7544   0024AC  0E96               	movlw	150
  7545   0024AE  6E0A               	movwf	i1___xxtofl@exp^0,c
  7546   0024B0  EF60  F012         	goto	i1l3530
  7547   0024B4                     i1l3528:
  7548   0024B4  2A0A               	incf	i1___xxtofl@exp^0,f,c
  7549   0024B6  90D8               	bcf	status,0,c
  7550   0024B8  320E               	rrcf	(i1___xxtofl@arg+3)^0,f,c
  7551   0024BA  320D               	rrcf	(i1___xxtofl@arg+2)^0,f,c
  7552   0024BC  320C               	rrcf	(i1___xxtofl@arg+1)^0,f,c
  7553   0024BE  320B               	rrcf	i1___xxtofl@arg^0,f,c
  7554   0024C0                     i1l3530:
  7555   0024C0  0E00               	movlw	0
  7556   0024C2  140B               	andwf	i1___xxtofl@arg^0,w,c
  7557   0024C4  6E05               	movwf	??i1___xxtofl^0,c
  7558   0024C6  0E00               	movlw	0
  7559   0024C8  140C               	andwf	(i1___xxtofl@arg+1)^0,w,c
  7560   0024CA  6E06               	movwf	(??i1___xxtofl+1)^0,c
  7561   0024CC  0E00               	movlw	0
  7562   0024CE  140D               	andwf	(i1___xxtofl@arg+2)^0,w,c
  7563   0024D0  6E07               	movwf	(??i1___xxtofl+2)^0,c
  7564   0024D2  0EFE               	movlw	254
  7565   0024D4  140E               	andwf	(i1___xxtofl@arg+3)^0,w,c
  7566   0024D6  6E08               	movwf	(??i1___xxtofl+3)^0,c
  7567   0024D8  5005               	movf	??i1___xxtofl^0,w,c
  7568   0024DA  1006               	iorwf	(??i1___xxtofl+1)^0,w,c
  7569   0024DC  1007               	iorwf	(??i1___xxtofl+2)^0,w,c
  7570   0024DE  1008               	iorwf	(??i1___xxtofl+3)^0,w,c
  7571   0024E0  A4D8               	btfss	status,2,c
  7572   0024E2  EF75  F012         	goto	i1u425_21
  7573   0024E6  EF77  F012         	goto	i1u425_20
  7574   0024EA                     i1u425_21:
  7575   0024EA  EF5A  F012         	goto	i1l3528
  7576   0024EE                     i1u425_20:
  7577   0024EE  EF85  F012         	goto	i1l982
  7578   0024F2                     i1l3532:
  7579   0024F2  2A0A               	incf	i1___xxtofl@exp^0,f,c
  7580   0024F4  0E01               	movlw	1
  7581   0024F6  260B               	addwf	i1___xxtofl@arg^0,f,c
  7582   0024F8  0E00               	movlw	0
  7583   0024FA  220C               	addwfc	(i1___xxtofl@arg+1)^0,f,c
  7584   0024FC  220D               	addwfc	(i1___xxtofl@arg+2)^0,f,c
  7585   0024FE  220E               	addwfc	(i1___xxtofl@arg+3)^0,f,c
  7586   002500  90D8               	bcf	status,0,c
  7587   002502  320E               	rrcf	(i1___xxtofl@arg+3)^0,f,c
  7588   002504  320D               	rrcf	(i1___xxtofl@arg+2)^0,f,c
  7589   002506  320C               	rrcf	(i1___xxtofl@arg+1)^0,f,c
  7590   002508  320B               	rrcf	i1___xxtofl@arg^0,f,c
  7591   00250A                     i1l982:
  7592   00250A  0E00               	movlw	0
  7593   00250C  140B               	andwf	i1___xxtofl@arg^0,w,c
  7594   00250E  6E05               	movwf	??i1___xxtofl^0,c
  7595   002510  0E00               	movlw	0
  7596   002512  140C               	andwf	(i1___xxtofl@arg+1)^0,w,c
  7597   002514  6E06               	movwf	(??i1___xxtofl+1)^0,c
  7598   002516  0E00               	movlw	0
  7599   002518  140D               	andwf	(i1___xxtofl@arg+2)^0,w,c
  7600   00251A  6E07               	movwf	(??i1___xxtofl+2)^0,c
  7601   00251C  0EFF               	movlw	255
  7602   00251E  140E               	andwf	(i1___xxtofl@arg+3)^0,w,c
  7603   002520  6E08               	movwf	(??i1___xxtofl+3)^0,c
  7604   002522  5005               	movf	??i1___xxtofl^0,w,c
  7605   002524  1006               	iorwf	(??i1___xxtofl+1)^0,w,c
  7606   002526  1007               	iorwf	(??i1___xxtofl+2)^0,w,c
  7607   002528  1008               	iorwf	(??i1___xxtofl+3)^0,w,c
  7608   00252A  A4D8               	btfss	status,2,c
  7609   00252C  EF9A  F012         	goto	i1u426_21
  7610   002530  EF9C  F012         	goto	i1u426_20
  7611   002534                     i1u426_21:
  7612   002534  EF79  F012         	goto	i1l3532
  7613   002538                     i1u426_20:
  7614   002538  EFA4  F012         	goto	i1l3540
  7615   00253C                     i1l3538:
  7616   00253C  060A               	decf	i1___xxtofl@exp^0,f,c
  7617   00253E  90D8               	bcf	status,0,c
  7618   002540  360B               	rlcf	i1___xxtofl@arg^0,f,c
  7619   002542  360C               	rlcf	(i1___xxtofl@arg+1)^0,f,c
  7620   002544  360D               	rlcf	(i1___xxtofl@arg+2)^0,f,c
  7621   002546  360E               	rlcf	(i1___xxtofl@arg+3)^0,f,c
  7622   002548                     i1l3540:
  7623   002548  BE0D               	btfsc	(i1___xxtofl@arg+2)^0,7,c
  7624   00254A  EFA9  F012         	goto	i1u427_21
  7625   00254E  EFAB  F012         	goto	i1u427_20
  7626   002552                     i1u427_21:
  7627   002552  EFB3  F012         	goto	i1l989
  7628   002556                     i1u427_20:
  7629   002556  0E02               	movlw	2
  7630   002558  600A               	cpfslt	i1___xxtofl@exp^0,c
  7631   00255A  EFB1  F012         	goto	i1u428_21
  7632   00255E  EFB3  F012         	goto	i1u428_20
  7633   002562                     i1u428_21:
  7634   002562  EF9E  F012         	goto	i1l3538
  7635   002566                     i1u428_20:
  7636   002566                     i1l989:
  7637   002566  B00A               	btfsc	i1___xxtofl@exp^0,0,c
  7638   002568  EFB8  F012         	goto	i1u429_21
  7639   00256C  EFBA  F012         	goto	i1u429_20
  7640   002570                     i1u429_21:
  7641   002570  EFBB  F012         	goto	i1l3546
  7642   002574                     i1u429_20:
  7643   002574  9E0D               	bcf	(i1___xxtofl@arg+2)^0,7,c
  7644   002576                     i1l3546:
  7645   002576  90D8               	bcf	status,0,c
  7646   002578  320A               	rrcf	i1___xxtofl@exp^0,f,c
  7647   00257A  C00A  F005         	movff	i1___xxtofl@exp,??i1___xxtofl
  7648   00257E  6A06               	clrf	(??i1___xxtofl+1)^0,c
  7649   002580  6A07               	clrf	(??i1___xxtofl+2)^0,c
  7650   002582  6A08               	clrf	(??i1___xxtofl+3)^0,c
  7651   002584  C005  F008         	movff	??i1___xxtofl,??i1___xxtofl+3
  7652   002588  6A07               	clrf	(??i1___xxtofl+2)^0,c
  7653   00258A  6A06               	clrf	(??i1___xxtofl+1)^0,c
  7654   00258C  6A05               	clrf	??i1___xxtofl^0,c
  7655   00258E  5005               	movf	??i1___xxtofl^0,w,c
  7656   002590  120B               	iorwf	i1___xxtofl@arg^0,f,c
  7657   002592  5006               	movf	(??i1___xxtofl+1)^0,w,c
  7658   002594  120C               	iorwf	(i1___xxtofl@arg+1)^0,f,c
  7659   002596  5007               	movf	(??i1___xxtofl+2)^0,w,c
  7660   002598  120D               	iorwf	(i1___xxtofl@arg+2)^0,f,c
  7661   00259A  5008               	movf	(??i1___xxtofl+3)^0,w,c
  7662   00259C  120E               	iorwf	(i1___xxtofl@arg+3)^0,f,c
  7663   00259E  5009               	movf	i1___xxtofl@sign^0,w,c
  7664   0025A0  B4D8               	btfsc	status,2,c
  7665   0025A2  EFD5  F012         	goto	i1u430_21
  7666   0025A6  EFD7  F012         	goto	i1u430_20
  7667   0025AA                     i1u430_21:
  7668   0025AA  EFDF  F012         	goto	i1l3556
  7669   0025AE                     i1u430_20:
  7670   0025AE  BE04               	btfsc	(i1___xxtofl@val+3)^0,7,c
  7671   0025B0  EFDE  F012         	goto	i1u431_20
  7672   0025B4  EFDC  F012         	goto	i1u431_21
  7673   0025B8                     i1u431_21:
  7674   0025B8  EFDF  F012         	goto	i1l3556
  7675   0025BC                     i1u431_20:
  7676   0025BC  8E0E               	bsf	(i1___xxtofl@arg+3)^0,7,c
  7677   0025BE                     i1l3556:
  7678   0025BE  C00B  F001         	movff	i1___xxtofl@arg,?i1___xxtofl
  7679   0025C2  C00C  F002         	movff	i1___xxtofl@arg+1,?i1___xxtofl+1
  7680   0025C6  C00D  F003         	movff	i1___xxtofl@arg+2,?i1___xxtofl+2
  7681   0025CA  C00E  F004         	movff	i1___xxtofl@arg+3,?i1___xxtofl+3
  7682   0025CE                     i1l978:
  7683   0025CE  0012               	return		;funcret
  7684   0025D0                     __end_ofi1___xxtofl:
  7685                           	callstack 0
  7686                           
  7687 ;; *************** function i1___fltol *****************
  7688 ;; Defined at:
  7689 ;;		line 43 in file "/Applications/microchip/xc8/v2.50/pic/sources/c99/common/fltol.c"
  7690 ;; Parameters:    Size  Location     Type
  7691 ;;  f1              4   64[COMRAM] unsigned char 
  7692 ;; Auto vars:     Size  Location     Type
  7693 ;;  exp1            1   73[COMRAM] unsigned char 
  7694 ;;  sign1           1   72[COMRAM] unsigned char 
  7695 ;; Return value:  Size  Location     Type
  7696 ;;                  4   64[COMRAM] long 
  7697 ;; Registers used:
  7698 ;;		wreg, status,2, status,0
  7699 ;; Tracked objects:
  7700 ;;		On entry : 0/0
  7701 ;;		On exit  : 0/0
  7702 ;;		Unchanged: 0/0
  7703 ;; Data sizes:     COMRAM   BANK0   BANK1   BANK2   BANK3   BANK4   BANK5
  7704 ;;      Params:         4       0       0       0       0       0       0
  7705 ;;      Locals:         2       0       0       0       0       0       0
  7706 ;;      Temps:          4       0       0       0       0       0       0
  7707 ;;      Totals:        10       0       0       0       0       0       0
  7708 ;;Total ram usage:       10 bytes
  7709 ;; Hardware stack levels used: 1
  7710 ;; Hardware stack levels required when called: 1
  7711 ;; This function calls:
  7712 ;;		Nothing
  7713 ;; This function is called by:
  7714 ;;		i1_PWMSetDutyCycle
  7715 ;; This function uses a non-reentrant model
  7716 ;;
  7717                           
  7718                           	psect	text27
  7719   002C04                     __ptext27:
  7720                           	callstack 0
  7721   002C04                     i1___fltol:
  7722                           	callstack 22
  7723   002C04  3443               	rlcf	(i1___fltol@f1+2)^0,w,c
  7724   002C06  3444               	rlcf	(i1___fltol@f1+3)^0,w,c
  7725   002C08  6E4A               	movwf	i1___fltol@exp1^0,c
  7726   002C0A  504A               	movf	i1___fltol@exp1^0,w,c
  7727   002C0C  A4D8               	btfss	status,2,c
  7728   002C0E  EF0B  F016         	goto	i1u373_21
  7729   002C12  EF0D  F016         	goto	i1u373_20
  7730   002C16                     i1u373_21:
  7731   002C16  EF17  F016         	goto	i1l3212
  7732   002C1A                     i1u373_20:
  7733   002C1A                     i1l3208:
  7734   002C1A  0E00               	movlw	0
  7735   002C1C  6E41               	movwf	?i1___fltol^0,c
  7736   002C1E  0E00               	movlw	0
  7737   002C20  6E42               	movwf	(?i1___fltol+1)^0,c
  7738   002C22  0E00               	movlw	0
  7739   002C24  6E43               	movwf	(?i1___fltol+2)^0,c
  7740   002C26  0E00               	movlw	0
  7741   002C28  6E44               	movwf	(?i1___fltol+3)^0,c
  7742   002C2A  EF84  F016         	goto	i1l617
  7743   002C2E                     i1l3212:
  7744   002C2E  C041  F045         	movff	i1___fltol@f1,??i1___fltol
  7745   002C32  C042  F046         	movff	i1___fltol@f1+1,??i1___fltol+1
  7746   002C36  C043  F047         	movff	i1___fltol@f1+2,??i1___fltol+2
  7747   002C3A  C044  F048         	movff	i1___fltol@f1+3,??i1___fltol+3
  7748   002C3E  0E20               	movlw	32
  7749   002C40  EF27  F016         	goto	i1u374_20
  7750   002C44                     i1u374_25:
  7751   002C44  90D8               	bcf	status,0,c
  7752   002C46  3248               	rrcf	(??i1___fltol+3)^0,f,c
  7753   002C48  3247               	rrcf	(??i1___fltol+2)^0,f,c
  7754   002C4A  3246               	rrcf	(??i1___fltol+1)^0,f,c
  7755   002C4C  3245               	rrcf	??i1___fltol^0,f,c
  7756   002C4E                     i1u374_20:
  7757   002C4E  2EE8               	decfsz	wreg,f,c
  7758   002C50  EF22  F016         	goto	i1u374_25
  7759   002C54  5045               	movf	??i1___fltol^0,w,c
  7760   002C56  6E49               	movwf	i1___fltol@sign1^0,c
  7761   002C58  8E43               	bsf	(i1___fltol@f1+2)^0,7,c
  7762   002C5A  0EFF               	movlw	255
  7763   002C5C  1641               	andwf	i1___fltol@f1^0,f,c
  7764   002C5E  0EFF               	movlw	255
  7765   002C60  1642               	andwf	(i1___fltol@f1+1)^0,f,c
  7766   002C62  0EFF               	movlw	255
  7767   002C64  1643               	andwf	(i1___fltol@f1+2)^0,f,c
  7768   002C66  0E00               	movlw	0
  7769   002C68  1644               	andwf	(i1___fltol@f1+3)^0,f,c
  7770   002C6A  0E96               	movlw	150
  7771   002C6C  5E4A               	subwf	i1___fltol@exp1^0,f,c
  7772   002C6E  BE4A               	btfsc	i1___fltol@exp1^0,7,c
  7773   002C70  EF3E  F016         	goto	i1u375_20
  7774   002C74  EF3C  F016         	goto	i1u375_21
  7775   002C78                     i1u375_21:
  7776   002C78  EF54  F016         	goto	i1l3232
  7777   002C7C                     i1u375_20:
  7778   002C7C  504A               	movf	i1___fltol@exp1^0,w,c
  7779   002C7E  0A80               	xorlw	128
  7780   002C80  0F97               	addlw	151
  7781   002C82  B0D8               	btfsc	status,0,c
  7782   002C84  EF46  F016         	goto	i1u376_21
  7783   002C88  EF48  F016         	goto	i1u376_20
  7784   002C8C                     i1u376_21:
  7785   002C8C  EF4A  F016         	goto	i1l3228
  7786   002C90                     i1u376_20:
  7787   002C90  EF0D  F016         	goto	i1l3208
  7788   002C94                     i1l3228:
  7789   002C94  90D8               	bcf	status,0,c
  7790   002C96  3244               	rrcf	(i1___fltol@f1+3)^0,f,c
  7791   002C98  3243               	rrcf	(i1___fltol@f1+2)^0,f,c
  7792   002C9A  3242               	rrcf	(i1___fltol@f1+1)^0,f,c
  7793   002C9C  3241               	rrcf	i1___fltol@f1^0,f,c
  7794   002C9E  3E4A               	incfsz	i1___fltol@exp1^0,f,c
  7795   002CA0  EF4A  F016         	goto	i1l3228
  7796   002CA4  EF6C  F016         	goto	i1l3242
  7797   002CA8                     i1l3232:
  7798   002CA8  0E1F               	movlw	31
  7799   002CAA  644A               	cpfsgt	i1___fltol@exp1^0,c
  7800   002CAC  EF5A  F016         	goto	i1u377_21
  7801   002CB0  EF5C  F016         	goto	i1u377_20
  7802   002CB4                     i1u377_21:
  7803   002CB4  EF64  F016         	goto	i1l3240
  7804   002CB8                     i1u377_20:
  7805   002CB8  EF0D  F016         	goto	i1l3208
  7806   002CBC                     i1l3238:
  7807   002CBC  90D8               	bcf	status,0,c
  7808   002CBE  3641               	rlcf	i1___fltol@f1^0,f,c
  7809   002CC0  3642               	rlcf	(i1___fltol@f1+1)^0,f,c
  7810   002CC2  3643               	rlcf	(i1___fltol@f1+2)^0,f,c
  7811   002CC4  3644               	rlcf	(i1___fltol@f1+3)^0,f,c
  7812   002CC6  064A               	decf	i1___fltol@exp1^0,f,c
  7813   002CC8                     i1l3240:
  7814   002CC8  504A               	movf	i1___fltol@exp1^0,w,c
  7815   002CCA  A4D8               	btfss	status,2,c
  7816   002CCC  EF6A  F016         	goto	i1u378_21
  7817   002CD0  EF6C  F016         	goto	i1u378_20
  7818   002CD4                     i1u378_21:
  7819   002CD4  EF5E  F016         	goto	i1l3238
  7820   002CD8                     i1u378_20:
  7821   002CD8                     i1l3242:
  7822   002CD8  5049               	movf	i1___fltol@sign1^0,w,c
  7823   002CDA  B4D8               	btfsc	status,2,c
  7824   002CDC  EF72  F016         	goto	i1u379_21
  7825   002CE0  EF74  F016         	goto	i1u379_20
  7826   002CE4                     i1u379_21:
  7827   002CE4  EF7C  F016         	goto	i1l3246
  7828   002CE8                     i1u379_20:
  7829   002CE8  1E44               	comf	(i1___fltol@f1+3)^0,f,c
  7830   002CEA  1E43               	comf	(i1___fltol@f1+2)^0,f,c
  7831   002CEC  1E42               	comf	(i1___fltol@f1+1)^0,f,c
  7832   002CEE  6C41               	negf	i1___fltol@f1^0,c
  7833   002CF0  0E00               	movlw	0
  7834   002CF2  2242               	addwfc	(i1___fltol@f1+1)^0,f,c
  7835   002CF4  2243               	addwfc	(i1___fltol@f1+2)^0,f,c
  7836   002CF6  2244               	addwfc	(i1___fltol@f1+3)^0,f,c
  7837   002CF8                     i1l3246:
  7838   002CF8  C041  F041         	movff	i1___fltol@f1,?i1___fltol
  7839   002CFC  C042  F042         	movff	i1___fltol@f1+1,?i1___fltol+1
  7840   002D00  C043  F043         	movff	i1___fltol@f1+2,?i1___fltol+2
  7841   002D04  C044  F044         	movff	i1___fltol@f1+3,?i1___fltol+3
  7842   002D08                     i1l617:
  7843   002D08  0012               	return		;funcret
  7844   002D0A                     __end_ofi1___fltol:
  7845                           	callstack 0
  7846                           
  7847 ;; *************** function i1___flmul *****************
  7848 ;; Defined at:
  7849 ;;		line 8 in file "/Applications/microchip/xc8/v2.50/pic/sources/c99/common/sprcmul.c"
  7850 ;; Parameters:    Size  Location     Type
  7851 ;;  b               4   14[COMRAM] long 
  7852 ;;  a               4   18[COMRAM] long 
  7853 ;; Auto vars:     Size  Location     Type
  7854 ;;  prod            4   33[COMRAM] struct .
  7855 ;;  grs             4   27[COMRAM] unsigned long 
  7856 ;;  temp            2   37[COMRAM] struct .
  7857 ;;  bexp            1   32[COMRAM] unsigned char 
  7858 ;;  aexp            1   31[COMRAM] unsigned char 
  7859 ;;  sign            1   26[COMRAM] unsigned char 
  7860 ;; Return value:  Size  Location     Type
  7861 ;;                  4   14[COMRAM] unsigned char 
  7862 ;; Registers used:
  7863 ;;		wreg, status,2, status,0, prodl, prodh
  7864 ;; Tracked objects:
  7865 ;;		On entry : 0/0
  7866 ;;		On exit  : 0/0
  7867 ;;		Unchanged: 0/0
  7868 ;; Data sizes:     COMRAM   BANK0   BANK1   BANK2   BANK3   BANK4   BANK5
  7869 ;;      Params:         8       0       0       0       0       0       0
  7870 ;;      Locals:        13       0       0       0       0       0       0
  7871 ;;      Temps:          4       0       0       0       0       0       0
  7872 ;;      Totals:        25       0       0       0       0       0       0
  7873 ;;Total ram usage:       25 bytes
  7874 ;; Hardware stack levels used: 1
  7875 ;; Hardware stack levels required when called: 1
  7876 ;; This function calls:
  7877 ;;		Nothing
  7878 ;; This function is called by:
  7879 ;;		_LowIsr
  7880 ;;		i1_PWMSetDutyCycle
  7881 ;; This function uses a non-reentrant model
  7882 ;;
  7883                           
  7884                           	psect	text28
  7885   001438                     __ptext28:
  7886                           	callstack 0
  7887   001438                     i1___flmul:
  7888                           	callstack 23
  7889   001438  5012               	movf	(i1___flmul@b+3)^0,w,c
  7890   00143A  0B80               	andlw	128
  7891   00143C  6E1B               	movwf	i1___flmul@sign^0,c
  7892   00143E  5012               	movf	(i1___flmul@b+3)^0,w,c
  7893   001440  2412               	addwf	(i1___flmul@b+3)^0,w,c
  7894   001442  6E21               	movwf	i1___flmul@bexp^0,c
  7895   001444  AE11               	btfss	(i1___flmul@b+2)^0,7,c
  7896   001446  EF27  F00A         	goto	i1u403_21
  7897   00144A  EF29  F00A         	goto	i1u403_20
  7898   00144E                     i1u403_21:
  7899   00144E  EF2A  F00A         	goto	i1l3392
  7900   001452                     i1u403_20:
  7901   001452  8021               	bsf	i1___flmul@bexp^0,0,c
  7902   001454                     i1l3392:
  7903   001454  5021               	movf	i1___flmul@bexp^0,w,c
  7904   001456  B4D8               	btfsc	status,2,c
  7905   001458  EF30  F00A         	goto	i1u404_21
  7906   00145C  EF32  F00A         	goto	i1u404_20
  7907   001460                     i1u404_21:
  7908   001460  EF45  F00A         	goto	i1l3400
  7909   001464                     i1u404_20:
  7910   001464  2821               	incf	i1___flmul@bexp^0,w,c
  7911   001466  A4D8               	btfss	status,2,c
  7912   001468  EF38  F00A         	goto	i1u405_21
  7913   00146C  EF3A  F00A         	goto	i1u405_20
  7914   001470                     i1u405_21:
  7915   001470  EF42  F00A         	goto	i1l3398
  7916   001474                     i1u405_20:
  7917   001474  0E00               	movlw	0
  7918   001476  6E0F               	movwf	i1___flmul@b^0,c
  7919   001478  0E00               	movlw	0
  7920   00147A  6E10               	movwf	(i1___flmul@b+1)^0,c
  7921   00147C  0E00               	movlw	0
  7922   00147E  6E11               	movwf	(i1___flmul@b+2)^0,c
  7923   001480  0E00               	movlw	0
  7924   001482  6E12               	movwf	(i1___flmul@b+3)^0,c
  7925   001484                     i1l3398:
  7926   001484  8E11               	bsf	(i1___flmul@b+2)^0,7,c
  7927   001486  EF4D  F00A         	goto	i1l3402
  7928   00148A                     i1l3400:
  7929   00148A  0E00               	movlw	0
  7930   00148C  6E0F               	movwf	i1___flmul@b^0,c
  7931   00148E  0E00               	movlw	0
  7932   001490  6E10               	movwf	(i1___flmul@b+1)^0,c
  7933   001492  0E00               	movlw	0
  7934   001494  6E11               	movwf	(i1___flmul@b+2)^0,c
  7935   001496  0E00               	movlw	0
  7936   001498  6E12               	movwf	(i1___flmul@b+3)^0,c
  7937   00149A                     i1l3402:
  7938   00149A  5016               	movf	(i1___flmul@a+3)^0,w,c
  7939   00149C  0B80               	andlw	128
  7940   00149E  1A1B               	xorwf	i1___flmul@sign^0,f,c
  7941   0014A0  5016               	movf	(i1___flmul@a+3)^0,w,c
  7942   0014A2  2416               	addwf	(i1___flmul@a+3)^0,w,c
  7943   0014A4  6E20               	movwf	i1___flmul@aexp^0,c
  7944   0014A6  AE15               	btfss	(i1___flmul@a+2)^0,7,c
  7945   0014A8  EF58  F00A         	goto	i1u406_21
  7946   0014AC  EF5A  F00A         	goto	i1u406_20
  7947   0014B0                     i1u406_21:
  7948   0014B0  EF5B  F00A         	goto	i1l3410
  7949   0014B4                     i1u406_20:
  7950   0014B4  8020               	bsf	i1___flmul@aexp^0,0,c
  7951   0014B6                     i1l3410:
  7952   0014B6  5020               	movf	i1___flmul@aexp^0,w,c
  7953   0014B8  B4D8               	btfsc	status,2,c
  7954   0014BA  EF61  F00A         	goto	i1u407_21
  7955   0014BE  EF63  F00A         	goto	i1u407_20
  7956   0014C2                     i1u407_21:
  7957   0014C2  EF76  F00A         	goto	i1l3418
  7958   0014C6                     i1u407_20:
  7959   0014C6  2820               	incf	i1___flmul@aexp^0,w,c
  7960   0014C8  A4D8               	btfss	status,2,c
  7961   0014CA  EF69  F00A         	goto	i1u408_21
  7962   0014CE  EF6B  F00A         	goto	i1u408_20
  7963   0014D2                     i1u408_21:
  7964   0014D2  EF73  F00A         	goto	i1l3416
  7965   0014D6                     i1u408_20:
  7966   0014D6  0E00               	movlw	0
  7967   0014D8  6E13               	movwf	i1___flmul@a^0,c
  7968   0014DA  0E00               	movlw	0
  7969   0014DC  6E14               	movwf	(i1___flmul@a+1)^0,c
  7970   0014DE  0E00               	movlw	0
  7971   0014E0  6E15               	movwf	(i1___flmul@a+2)^0,c
  7972   0014E2  0E00               	movlw	0
  7973   0014E4  6E16               	movwf	(i1___flmul@a+3)^0,c
  7974   0014E6                     i1l3416:
  7975   0014E6  8E15               	bsf	(i1___flmul@a+2)^0,7,c
  7976   0014E8  EF7E  F00A         	goto	i1l934
  7977   0014EC                     i1l3418:
  7978   0014EC  0E00               	movlw	0
  7979   0014EE  6E13               	movwf	i1___flmul@a^0,c
  7980   0014F0  0E00               	movlw	0
  7981   0014F2  6E14               	movwf	(i1___flmul@a+1)^0,c
  7982   0014F4  0E00               	movlw	0
  7983   0014F6  6E15               	movwf	(i1___flmul@a+2)^0,c
  7984   0014F8  0E00               	movlw	0
  7985   0014FA  6E16               	movwf	(i1___flmul@a+3)^0,c
  7986   0014FC                     i1l934:
  7987   0014FC  5020               	movf	i1___flmul@aexp^0,w,c
  7988   0014FE  B4D8               	btfsc	status,2,c
  7989   001500  EF84  F00A         	goto	i1u409_21
  7990   001504  EF86  F00A         	goto	i1u409_20
  7991   001508                     i1u409_21:
  7992   001508  EF8E  F00A         	goto	i1l3422
  7993   00150C                     i1u409_20:
  7994   00150C  5021               	movf	i1___flmul@bexp^0,w,c
  7995   00150E  A4D8               	btfss	status,2,c
  7996   001510  EF8C  F00A         	goto	i1u410_21
  7997   001514  EF8E  F00A         	goto	i1u410_20
  7998   001518                     i1u410_21:
  7999   001518  EF98  F00A         	goto	i1l3426
  8000   00151C                     i1u410_20:
  8001   00151C                     i1l3422:
  8002   00151C  0E00               	movlw	0
  8003   00151E  6E0F               	movwf	?i1___flmul^0,c
  8004   001520  0E00               	movlw	0
  8005   001522  6E10               	movwf	(?i1___flmul+1)^0,c
  8006   001524  0E00               	movlw	0
  8007   001526  6E11               	movwf	(?i1___flmul+2)^0,c
  8008   001528  0E00               	movlw	0
  8009   00152A  6E12               	movwf	(?i1___flmul+3)^0,c
  8010   00152C  EF2E  F00C         	goto	i1l938
  8011   001530                     i1l3426:
  8012   001530  5015               	movf	(i1___flmul@a+2)^0,w,c
  8013   001532  020F               	mulwf	i1___flmul@b^0,c
  8014   001534  CFF3 F026          	movff	prodl,i1___flmul@temp
  8015   001538  CFF4 F027          	movff	prodh,i1___flmul@temp+1
  8016   00153C  5026               	movf	i1___flmul@temp^0,w,c
  8017   00153E  6E1C               	movwf	i1___flmul@grs^0,c
  8018   001540  6A1D               	clrf	(i1___flmul@grs+1)^0,c
  8019   001542  6A1E               	clrf	(i1___flmul@grs+2)^0,c
  8020   001544  6A1F               	clrf	(i1___flmul@grs+3)^0,c
  8021   001546  5027               	movf	(i1___flmul@temp+1)^0,w,c
  8022   001548  6E22               	movwf	i1___flmul@prod^0,c
  8023   00154A  6A23               	clrf	(i1___flmul@prod+1)^0,c
  8024   00154C  6A24               	clrf	(i1___flmul@prod+2)^0,c
  8025   00154E  6A25               	clrf	(i1___flmul@prod+3)^0,c
  8026   001550  5014               	movf	(i1___flmul@a+1)^0,w,c
  8027   001552  0210               	mulwf	(i1___flmul@b+1)^0,c
  8028   001554  CFF3 F026          	movff	prodl,i1___flmul@temp
  8029   001558  CFF4 F027          	movff	prodh,i1___flmul@temp+1
  8030   00155C  5026               	movf	i1___flmul@temp^0,w,c
  8031   00155E  261C               	addwf	i1___flmul@grs^0,f,c
  8032   001560  0E00               	movlw	0
  8033   001562  221D               	addwfc	(i1___flmul@grs+1)^0,f,c
  8034   001564  221E               	addwfc	(i1___flmul@grs+2)^0,f,c
  8035   001566  221F               	addwfc	(i1___flmul@grs+3)^0,f,c
  8036   001568  5027               	movf	(i1___flmul@temp+1)^0,w,c
  8037   00156A  2622               	addwf	i1___flmul@prod^0,f,c
  8038   00156C  0E00               	movlw	0
  8039   00156E  2223               	addwfc	(i1___flmul@prod+1)^0,f,c
  8040   001570  2224               	addwfc	(i1___flmul@prod+2)^0,f,c
  8041   001572  2225               	addwfc	(i1___flmul@prod+3)^0,f,c
  8042   001574  5013               	movf	i1___flmul@a^0,w,c
  8043   001576  0211               	mulwf	(i1___flmul@b+2)^0,c
  8044   001578  CFF3 F026          	movff	prodl,i1___flmul@temp
  8045   00157C  CFF4 F027          	movff	prodh,i1___flmul@temp+1
  8046   001580  5026               	movf	i1___flmul@temp^0,w,c
  8047   001582  261C               	addwf	i1___flmul@grs^0,f,c
  8048   001584  0E00               	movlw	0
  8049   001586  221D               	addwfc	(i1___flmul@grs+1)^0,f,c
  8050   001588  221E               	addwfc	(i1___flmul@grs+2)^0,f,c
  8051   00158A  221F               	addwfc	(i1___flmul@grs+3)^0,f,c
  8052   00158C  5027               	movf	(i1___flmul@temp+1)^0,w,c
  8053   00158E  2622               	addwf	i1___flmul@prod^0,f,c
  8054   001590  0E00               	movlw	0
  8055   001592  2223               	addwfc	(i1___flmul@prod+1)^0,f,c
  8056   001594  2224               	addwfc	(i1___flmul@prod+2)^0,f,c
  8057   001596  2225               	addwfc	(i1___flmul@prod+3)^0,f,c
  8058   001598  C01E  F01F         	movff	i1___flmul@grs+2,i1___flmul@grs+3
  8059   00159C  C01D  F01E         	movff	i1___flmul@grs+1,i1___flmul@grs+2
  8060   0015A0  C01C  F01D         	movff	i1___flmul@grs,i1___flmul@grs+1
  8061   0015A4  6A1C               	clrf	i1___flmul@grs^0,c
  8062   0015A6  5013               	movf	i1___flmul@a^0,w,c
  8063   0015A8  0210               	mulwf	(i1___flmul@b+1)^0,c
  8064   0015AA  CFF3 F026          	movff	prodl,i1___flmul@temp
  8065   0015AE  CFF4 F027          	movff	prodh,i1___flmul@temp+1
  8066   0015B2  5026               	movf	i1___flmul@temp^0,w,c
  8067   0015B4  261C               	addwf	i1___flmul@grs^0,f,c
  8068   0015B6  5027               	movf	(i1___flmul@temp+1)^0,w,c
  8069   0015B8  221D               	addwfc	(i1___flmul@grs+1)^0,f,c
  8070   0015BA  0E00               	movlw	0
  8071   0015BC  221E               	addwfc	(i1___flmul@grs+2)^0,f,c
  8072   0015BE  0E00               	movlw	0
  8073   0015C0  221F               	addwfc	(i1___flmul@grs+3)^0,f,c
  8074   0015C2  5014               	movf	(i1___flmul@a+1)^0,w,c
  8075   0015C4  020F               	mulwf	i1___flmul@b^0,c
  8076   0015C6  CFF3 F026          	movff	prodl,i1___flmul@temp
  8077   0015CA  CFF4 F027          	movff	prodh,i1___flmul@temp+1
  8078   0015CE  5026               	movf	i1___flmul@temp^0,w,c
  8079   0015D0  261C               	addwf	i1___flmul@grs^0,f,c
  8080   0015D2  5027               	movf	(i1___flmul@temp+1)^0,w,c
  8081   0015D4  221D               	addwfc	(i1___flmul@grs+1)^0,f,c
  8082   0015D6  0E00               	movlw	0
  8083   0015D8  221E               	addwfc	(i1___flmul@grs+2)^0,f,c
  8084   0015DA  0E00               	movlw	0
  8085   0015DC  221F               	addwfc	(i1___flmul@grs+3)^0,f,c
  8086   0015DE  C01E  F01F         	movff	i1___flmul@grs+2,i1___flmul@grs+3
  8087   0015E2  C01D  F01E         	movff	i1___flmul@grs+1,i1___flmul@grs+2
  8088   0015E6  C01C  F01D         	movff	i1___flmul@grs,i1___flmul@grs+1
  8089   0015EA  6A1C               	clrf	i1___flmul@grs^0,c
  8090   0015EC  5013               	movf	i1___flmul@a^0,w,c
  8091   0015EE  020F               	mulwf	i1___flmul@b^0,c
  8092   0015F0  CFF3 F026          	movff	prodl,i1___flmul@temp
  8093   0015F4  CFF4 F027          	movff	prodh,i1___flmul@temp+1
  8094   0015F8  5026               	movf	i1___flmul@temp^0,w,c
  8095   0015FA  261C               	addwf	i1___flmul@grs^0,f,c
  8096   0015FC  5027               	movf	(i1___flmul@temp+1)^0,w,c
  8097   0015FE  221D               	addwfc	(i1___flmul@grs+1)^0,f,c
  8098   001600  0E00               	movlw	0
  8099   001602  221E               	addwfc	(i1___flmul@grs+2)^0,f,c
  8100   001604  0E00               	movlw	0
  8101   001606  221F               	addwfc	(i1___flmul@grs+3)^0,f,c
  8102   001608  5015               	movf	(i1___flmul@a+2)^0,w,c
  8103   00160A  0210               	mulwf	(i1___flmul@b+1)^0,c
  8104   00160C  CFF3 F026          	movff	prodl,i1___flmul@temp
  8105   001610  CFF4 F027          	movff	prodh,i1___flmul@temp+1
  8106   001614  5026               	movf	i1___flmul@temp^0,w,c
  8107   001616  2622               	addwf	i1___flmul@prod^0,f,c
  8108   001618  5027               	movf	(i1___flmul@temp+1)^0,w,c
  8109   00161A  2223               	addwfc	(i1___flmul@prod+1)^0,f,c
  8110   00161C  0E00               	movlw	0
  8111   00161E  2224               	addwfc	(i1___flmul@prod+2)^0,f,c
  8112   001620  0E00               	movlw	0
  8113   001622  2225               	addwfc	(i1___flmul@prod+3)^0,f,c
  8114   001624  5014               	movf	(i1___flmul@a+1)^0,w,c
  8115   001626  0211               	mulwf	(i1___flmul@b+2)^0,c
  8116   001628  CFF3 F026          	movff	prodl,i1___flmul@temp
  8117   00162C  CFF4 F027          	movff	prodh,i1___flmul@temp+1
  8118   001630  5026               	movf	i1___flmul@temp^0,w,c
  8119   001632  2622               	addwf	i1___flmul@prod^0,f,c
  8120   001634  5027               	movf	(i1___flmul@temp+1)^0,w,c
  8121   001636  2223               	addwfc	(i1___flmul@prod+1)^0,f,c
  8122   001638  0E00               	movlw	0
  8123   00163A  2224               	addwfc	(i1___flmul@prod+2)^0,f,c
  8124   00163C  0E00               	movlw	0
  8125   00163E  2225               	addwfc	(i1___flmul@prod+3)^0,f,c
  8126   001640  5015               	movf	(i1___flmul@a+2)^0,w,c
  8127   001642  0211               	mulwf	(i1___flmul@b+2)^0,c
  8128   001644  CFF3 F026          	movff	prodl,i1___flmul@temp
  8129   001648  CFF4 F027          	movff	prodh,i1___flmul@temp+1
  8130   00164C  5026               	movf	i1___flmul@temp^0,w,c
  8131   00164E  6E17               	movwf	??i1___flmul^0,c
  8132   001650  5027               	movf	(i1___flmul@temp+1)^0,w,c
  8133   001652  6E18               	movwf	(??i1___flmul+1)^0,c
  8134   001654  6A19               	clrf	(??i1___flmul+2)^0,c
  8135   001656  6A1A               	clrf	(??i1___flmul+3)^0,c
  8136   001658  C019  F01A         	movff	??i1___flmul+2,??i1___flmul+3
  8137   00165C  C018  F019         	movff	??i1___flmul+1,??i1___flmul+2
  8138   001660  C017  F018         	movff	??i1___flmul,??i1___flmul+1
  8139   001664  6A17               	clrf	??i1___flmul^0,c
  8140   001666  5017               	movf	??i1___flmul^0,w,c
  8141   001668  2622               	addwf	i1___flmul@prod^0,f,c
  8142   00166A  5018               	movf	(??i1___flmul+1)^0,w,c
  8143   00166C  2223               	addwfc	(i1___flmul@prod+1)^0,f,c
  8144   00166E  5019               	movf	(??i1___flmul+2)^0,w,c
  8145   001670  2224               	addwfc	(i1___flmul@prod+2)^0,f,c
  8146   001672  501A               	movf	(??i1___flmul+3)^0,w,c
  8147   001674  2225               	addwfc	(i1___flmul@prod+3)^0,f,c
  8148   001676  C01C  F017         	movff	i1___flmul@grs,??i1___flmul
  8149   00167A  C01D  F018         	movff	i1___flmul@grs+1,??i1___flmul+1
  8150   00167E  C01E  F019         	movff	i1___flmul@grs+2,??i1___flmul+2
  8151   001682  C01F  F01A         	movff	i1___flmul@grs+3,??i1___flmul+3
  8152   001686  0E19               	movlw	25
  8153   001688  EF4B  F00B         	goto	i1u411_20
  8154   00168C                     i1u411_25:
  8155   00168C  90D8               	bcf	status,0,c
  8156   00168E  321A               	rrcf	(??i1___flmul+3)^0,f,c
  8157   001690  3219               	rrcf	(??i1___flmul+2)^0,f,c
  8158   001692  3218               	rrcf	(??i1___flmul+1)^0,f,c
  8159   001694  3217               	rrcf	??i1___flmul^0,f,c
  8160   001696                     i1u411_20:
  8161   001696  2EE8               	decfsz	wreg,f,c
  8162   001698  EF46  F00B         	goto	i1u411_25
  8163   00169C  5017               	movf	??i1___flmul^0,w,c
  8164   00169E  2622               	addwf	i1___flmul@prod^0,f,c
  8165   0016A0  5018               	movf	(??i1___flmul+1)^0,w,c
  8166   0016A2  2223               	addwfc	(i1___flmul@prod+1)^0,f,c
  8167   0016A4  5019               	movf	(??i1___flmul+2)^0,w,c
  8168   0016A6  2224               	addwfc	(i1___flmul@prod+2)^0,f,c
  8169   0016A8  501A               	movf	(??i1___flmul+3)^0,w,c
  8170   0016AA  2225               	addwfc	(i1___flmul@prod+3)^0,f,c
  8171   0016AC  C01E  F01F         	movff	i1___flmul@grs+2,i1___flmul@grs+3
  8172   0016B0  C01D  F01E         	movff	i1___flmul@grs+1,i1___flmul@grs+2
  8173   0016B4  C01C  F01D         	movff	i1___flmul@grs,i1___flmul@grs+1
  8174   0016B8  6A1C               	clrf	i1___flmul@grs^0,c
  8175   0016BA  5020               	movf	i1___flmul@aexp^0,w,c
  8176   0016BC  C021  F017         	movff	i1___flmul@bexp,??i1___flmul
  8177   0016C0  6A18               	clrf	(??i1___flmul+1)^0,c
  8178   0016C2  2617               	addwf	??i1___flmul^0,f,c
  8179   0016C4  0E00               	movlw	0
  8180   0016C6  2218               	addwfc	(??i1___flmul+1)^0,f,c
  8181   0016C8  0E82               	movlw	130
  8182   0016CA  2417               	addwf	??i1___flmul^0,w,c
  8183   0016CC  6E26               	movwf	i1___flmul@temp^0,c
  8184   0016CE  0EFF               	movlw	255
  8185   0016D0  2018               	addwfc	(??i1___flmul+1)^0,w,c
  8186   0016D2  6E27               	movwf	(i1___flmul@temp+1)^0,c
  8187   0016D4  EF81  F00B         	goto	i1l3474
  8188   0016D8                     i1l3468:
  8189   0016D8  90D8               	bcf	status,0,c
  8190   0016DA  3622               	rlcf	i1___flmul@prod^0,f,c
  8191   0016DC  3623               	rlcf	(i1___flmul@prod+1)^0,f,c
  8192   0016DE  3624               	rlcf	(i1___flmul@prod+2)^0,f,c
  8193   0016E0  3625               	rlcf	(i1___flmul@prod+3)^0,f,c
  8194   0016E2  AE1F               	btfss	(i1___flmul@grs+3)^0,7,c
  8195   0016E4  EF76  F00B         	goto	i1u412_21
  8196   0016E8  EF78  F00B         	goto	i1u412_20
  8197   0016EC                     i1u412_21:
  8198   0016EC  EF79  F00B         	goto	i1l941
  8199   0016F0                     i1u412_20:
  8200   0016F0  8022               	bsf	i1___flmul@prod^0,0,c
  8201   0016F2                     i1l941:
  8202   0016F2  90D8               	bcf	status,0,c
  8203   0016F4  361C               	rlcf	i1___flmul@grs^0,f,c
  8204   0016F6  361D               	rlcf	(i1___flmul@grs+1)^0,f,c
  8205   0016F8  361E               	rlcf	(i1___flmul@grs+2)^0,f,c
  8206   0016FA  361F               	rlcf	(i1___flmul@grs+3)^0,f,c
  8207   0016FC  0626               	decf	i1___flmul@temp^0,f,c
  8208   0016FE  A0D8               	btfss	status,0,c
  8209   001700  0627               	decf	(i1___flmul@temp+1)^0,f,c
  8210   001702                     i1l3474:
  8211   001702  AE24               	btfss	(i1___flmul@prod+2)^0,7,c
  8212   001704  EF86  F00B         	goto	i1u413_21
  8213   001708  EF88  F00B         	goto	i1u413_20
  8214   00170C                     i1u413_21:
  8215   00170C  EF6C  F00B         	goto	i1l3468
  8216   001710                     i1u413_20:
  8217   001710  6A20               	clrf	i1___flmul@aexp^0,c
  8218   001712  AE1F               	btfss	(i1___flmul@grs+3)^0,7,c
  8219   001714  EF8E  F00B         	goto	i1u414_21
  8220   001718  EF90  F00B         	goto	i1u414_20
  8221   00171C                     i1u414_21:
  8222   00171C  EFB4  F00B         	goto	i1l943
  8223   001720                     i1u414_20:
  8224   001720  0EFF               	movlw	255
  8225   001722  141C               	andwf	i1___flmul@grs^0,w,c
  8226   001724  6E17               	movwf	??i1___flmul^0,c
  8227   001726  0EFF               	movlw	255
  8228   001728  141D               	andwf	(i1___flmul@grs+1)^0,w,c
  8229   00172A  6E18               	movwf	(??i1___flmul+1)^0,c
  8230   00172C  0EFF               	movlw	255
  8231   00172E  141E               	andwf	(i1___flmul@grs+2)^0,w,c
  8232   001730  6E19               	movwf	(??i1___flmul+2)^0,c
  8233   001732  0E7F               	movlw	127
  8234   001734  141F               	andwf	(i1___flmul@grs+3)^0,w,c
  8235   001736  6E1A               	movwf	(??i1___flmul+3)^0,c
  8236   001738  5017               	movf	??i1___flmul^0,w,c
  8237   00173A  1018               	iorwf	(??i1___flmul+1)^0,w,c
  8238   00173C  1019               	iorwf	(??i1___flmul+2)^0,w,c
  8239   00173E  101A               	iorwf	(??i1___flmul+3)^0,w,c
  8240   001740  B4D8               	btfsc	status,2,c
  8241   001742  EFA5  F00B         	goto	i1u415_21
  8242   001746  EFA7  F00B         	goto	i1u415_20
  8243   00174A                     i1u415_21:
  8244   00174A  EFAB  F00B         	goto	i1l944
  8245   00174E                     i1u415_20:
  8246   00174E                     i1l3478:
  8247   00174E  0E01               	movlw	1
  8248   001750  6E20               	movwf	i1___flmul@aexp^0,c
  8249   001752  EFB4  F00B         	goto	i1l943
  8250   001756                     i1l944:
  8251   001756  A022               	btfss	i1___flmul@prod^0,0,c
  8252   001758  EFB0  F00B         	goto	i1u416_21
  8253   00175C  EFB2  F00B         	goto	i1u416_20
  8254   001760                     i1u416_21:
  8255   001760  EFB4  F00B         	goto	i1l943
  8256   001764                     i1u416_20:
  8257   001764  EFA7  F00B         	goto	i1l3478
  8258   001768                     i1l943:
  8259   001768  5020               	movf	i1___flmul@aexp^0,w,c
  8260   00176A  B4D8               	btfsc	status,2,c
  8261   00176C  EFBA  F00B         	goto	i1u417_21
  8262   001770  EFBC  F00B         	goto	i1u417_20
  8263   001774                     i1u417_21:
  8264   001774  EFE0  F00B         	goto	i1l3490
  8265   001778                     i1u417_20:
  8266   001778  0E01               	movlw	1
  8267   00177A  2622               	addwf	i1___flmul@prod^0,f,c
  8268   00177C  0E00               	movlw	0
  8269   00177E  2223               	addwfc	(i1___flmul@prod+1)^0,f,c
  8270   001780  2224               	addwfc	(i1___flmul@prod+2)^0,f,c
  8271   001782  2225               	addwfc	(i1___flmul@prod+3)^0,f,c
  8272   001784  A025               	btfss	(i1___flmul@prod+3)^0,0,c
  8273   001786  EFC7  F00B         	goto	i1u418_21
  8274   00178A  EFC9  F00B         	goto	i1u418_20
  8275   00178E                     i1u418_21:
  8276   00178E  EFE0  F00B         	goto	i1l3490
  8277   001792                     i1u418_20:
  8278   001792  C022  F017         	movff	i1___flmul@prod,??i1___flmul
  8279   001796  C023  F018         	movff	i1___flmul@prod+1,??i1___flmul+1
  8280   00179A  C024  F019         	movff	i1___flmul@prod+2,??i1___flmul+2
  8281   00179E  C025  F01A         	movff	i1___flmul@prod+3,??i1___flmul+3
  8282   0017A2  341A               	rlcf	(??i1___flmul+3)^0,w,c
  8283   0017A4  321A               	rrcf	(??i1___flmul+3)^0,f,c
  8284   0017A6  3219               	rrcf	(??i1___flmul+2)^0,f,c
  8285   0017A8  3218               	rrcf	(??i1___flmul+1)^0,f,c
  8286   0017AA  3217               	rrcf	??i1___flmul^0,f,c
  8287   0017AC  C017  F022         	movff	??i1___flmul,i1___flmul@prod
  8288   0017B0  C018  F023         	movff	??i1___flmul+1,i1___flmul@prod+1
  8289   0017B4  C019  F024         	movff	??i1___flmul+2,i1___flmul@prod+2
  8290   0017B8  C01A  F025         	movff	??i1___flmul+3,i1___flmul@prod+3
  8291   0017BC  4A26               	infsnz	i1___flmul@temp^0,f,c
  8292   0017BE  2A27               	incf	(i1___flmul@temp+1)^0,f,c
  8293   0017C0                     i1l3490:
  8294   0017C0  BE27               	btfsc	(i1___flmul@temp+1)^0,7,c
  8295   0017C2  EFEB  F00B         	goto	i1u419_21
  8296   0017C6  5027               	movf	(i1___flmul@temp+1)^0,w,c
  8297   0017C8  E108               	bnz	i1u419_20
  8298   0017CA  2826               	incf	i1___flmul@temp^0,w,c
  8299   0017CC  A0D8               	btfss	status,0,c
  8300   0017CE  EFEB  F00B         	goto	i1u419_21
  8301   0017D2  EFED  F00B         	goto	i1u419_20
  8302   0017D6                     i1u419_21:
  8303   0017D6  EFF7  F00B         	goto	i1l3494
  8304   0017DA                     i1u419_20:
  8305   0017DA  0E00               	movlw	0
  8306   0017DC  6E22               	movwf	i1___flmul@prod^0,c
  8307   0017DE  0E00               	movlw	0
  8308   0017E0  6E23               	movwf	(i1___flmul@prod+1)^0,c
  8309   0017E2  0E80               	movlw	128
  8310   0017E4  6E24               	movwf	(i1___flmul@prod+2)^0,c
  8311   0017E6  0E7F               	movlw	127
  8312   0017E8  6E25               	movwf	(i1___flmul@prod+3)^0,c
  8313   0017EA  EF24  F00C         	goto	i1l3508
  8314   0017EE                     i1l3494:
  8315   0017EE  BE27               	btfsc	(i1___flmul@temp+1)^0,7,c
  8316   0017F0  EF04  F00C         	goto	i1u420_20
  8317   0017F4  5027               	movf	(i1___flmul@temp+1)^0,w,c
  8318   0017F6  E106               	bnz	i1u420_21
  8319   0017F8  0426               	decf	i1___flmul@temp^0,w,c
  8320   0017FA  B0D8               	btfsc	status,0,c
  8321   0017FC  EF02  F00C         	goto	i1u420_21
  8322   001800  EF04  F00C         	goto	i1u420_20
  8323   001804                     i1u420_21:
  8324   001804  EF0F  F00C         	goto	i1l951
  8325   001808                     i1u420_20:
  8326   001808  0E00               	movlw	0
  8327   00180A  6E22               	movwf	i1___flmul@prod^0,c
  8328   00180C  0E00               	movlw	0
  8329   00180E  6E23               	movwf	(i1___flmul@prod+1)^0,c
  8330   001810  0E00               	movlw	0
  8331   001812  6E24               	movwf	(i1___flmul@prod+2)^0,c
  8332   001814  0E00               	movlw	0
  8333   001816  6E25               	movwf	(i1___flmul@prod+3)^0,c
  8334   001818  6A1B               	clrf	i1___flmul@sign^0,c
  8335   00181A  EF24  F00C         	goto	i1l3508
  8336   00181E                     i1l951:
  8337   00181E  C026  F021         	movff	i1___flmul@temp,i1___flmul@bexp
  8338   001822  0EFF               	movlw	255
  8339   001824  1622               	andwf	i1___flmul@prod^0,f,c
  8340   001826  0EFF               	movlw	255
  8341   001828  1623               	andwf	(i1___flmul@prod+1)^0,f,c
  8342   00182A  0E7F               	movlw	127
  8343   00182C  1624               	andwf	(i1___flmul@prod+2)^0,f,c
  8344   00182E  0E00               	movlw	0
  8345   001830  1625               	andwf	(i1___flmul@prod+3)^0,f,c
  8346   001832  A021               	btfss	i1___flmul@bexp^0,0,c
  8347   001834  EF1E  F00C         	goto	i1u421_21
  8348   001838  EF20  F00C         	goto	i1u421_20
  8349   00183C                     i1u421_21:
  8350   00183C  EF21  F00C         	goto	i1l3506
  8351   001840                     i1u421_20:
  8352   001840  8E24               	bsf	(i1___flmul@prod+2)^0,7,c
  8353   001842                     i1l3506:
  8354   001842  90D8               	bcf	status,0,c
  8355   001844  3021               	rrcf	i1___flmul@bexp^0,w,c
  8356   001846  6E25               	movwf	(i1___flmul@prod+3)^0,c
  8357   001848                     i1l3508:
  8358   001848  501B               	movf	i1___flmul@sign^0,w,c
  8359   00184A  1225               	iorwf	(i1___flmul@prod+3)^0,f,c
  8360   00184C  C022  F00F         	movff	i1___flmul@prod,?i1___flmul
  8361   001850  C023  F010         	movff	i1___flmul@prod+1,?i1___flmul+1
  8362   001854  C024  F011         	movff	i1___flmul@prod+2,?i1___flmul+2
  8363   001858  C025  F012         	movff	i1___flmul@prod+3,?i1___flmul+3
  8364   00185C                     i1l938:
  8365   00185C  0012               	return		;funcret
  8366   00185E                     __end_ofi1___flmul:
  8367                           	callstack 0
  8368                           
  8369 ;; *************** function i1___fldiv *****************
  8370 ;; Defined at:
  8371 ;;		line 11 in file "/Applications/microchip/xc8/v2.50/pic/sources/c99/common/sprcdiv.c"
  8372 ;; Parameters:    Size  Location     Type
  8373 ;;  b               4   39[COMRAM] unsigned char 
  8374 ;;  a               4   43[COMRAM] unsigned char 
  8375 ;; Auto vars:     Size  Location     Type
  8376 ;;  grs             4   58[COMRAM] unsigned long 
  8377 ;;  rem             4   51[COMRAM] unsigned long 
  8378 ;;  new_exp         2   56[COMRAM] short 
  8379 ;;  aexp            1   63[COMRAM] unsigned char 
  8380 ;;  bexp            1   62[COMRAM] unsigned char 
  8381 ;;  sign            1   55[COMRAM] unsigned char 
  8382 ;; Return value:  Size  Location     Type
  8383 ;;                  4   39[COMRAM] unsigned char 
  8384 ;; Registers used:
  8385 ;;		wreg, status,2, status,0
  8386 ;; Tracked objects:
  8387 ;;		On entry : 0/0
  8388 ;;		On exit  : 0/0
  8389 ;;		Unchanged: 0/0
  8390 ;; Data sizes:     COMRAM   BANK0   BANK1   BANK2   BANK3   BANK4   BANK5
  8391 ;;      Params:         8       0       0       0       0       0       0
  8392 ;;      Locals:        13       0       0       0       0       0       0
  8393 ;;      Temps:          4       0       0       0       0       0       0
  8394 ;;      Totals:        25       0       0       0       0       0       0
  8395 ;;Total ram usage:       25 bytes
  8396 ;; Hardware stack levels used: 1
  8397 ;; Hardware stack levels required when called: 1
  8398 ;; This function calls:
  8399 ;;		Nothing
  8400 ;; This function is called by:
  8401 ;;		_LowIsr
  8402 ;;		i1_PWMSetDutyCycle
  8403 ;; This function uses a non-reentrant model
  8404 ;;
  8405                           
  8406                           	psect	text29
  8407   001C82                     __ptext29:
  8408                           	callstack 0
  8409   001C82                     i1___fldiv:
  8410                           	callstack 23
  8411   001C82  502B               	movf	(i1___fldiv@b+3)^0,w,c
  8412   001C84  0B80               	andlw	128
  8413   001C86  6E38               	movwf	i1___fldiv@sign^0,c
  8414   001C88  502B               	movf	(i1___fldiv@b+3)^0,w,c
  8415   001C8A  242B               	addwf	(i1___fldiv@b+3)^0,w,c
  8416   001C8C  6E3F               	movwf	i1___fldiv@bexp^0,c
  8417   001C8E  AE2A               	btfss	(i1___fldiv@b+2)^0,7,c
  8418   001C90  EF4C  F00E         	goto	i1u380_21
  8419   001C94  EF4E  F00E         	goto	i1u380_20
  8420   001C98                     i1u380_21:
  8421   001C98  EF4F  F00E         	goto	i1l3256
  8422   001C9C                     i1u380_20:
  8423   001C9C  803F               	bsf	i1___fldiv@bexp^0,0,c
  8424   001C9E                     i1l3256:
  8425   001C9E  503F               	movf	i1___fldiv@bexp^0,w,c
  8426   001CA0  B4D8               	btfsc	status,2,c
  8427   001CA2  EF55  F00E         	goto	i1u381_21
  8428   001CA6  EF57  F00E         	goto	i1u381_20
  8429   001CAA                     i1u381_21:
  8430   001CAA  EF6B  F00E         	goto	i1l3266
  8431   001CAE                     i1u381_20:
  8432   001CAE  283F               	incf	i1___fldiv@bexp^0,w,c
  8433   001CB0  A4D8               	btfss	status,2,c
  8434   001CB2  EF5D  F00E         	goto	i1u382_21
  8435   001CB6  EF5F  F00E         	goto	i1u382_20
  8436   001CBA                     i1u382_21:
  8437   001CBA  EF67  F00E         	goto	i1l3262
  8438   001CBE                     i1u382_20:
  8439   001CBE  0E00               	movlw	0
  8440   001CC0  6E28               	movwf	i1___fldiv@b^0,c
  8441   001CC2  0E00               	movlw	0
  8442   001CC4  6E29               	movwf	(i1___fldiv@b+1)^0,c
  8443   001CC6  0E00               	movlw	0
  8444   001CC8  6E2A               	movwf	(i1___fldiv@b+2)^0,c
  8445   001CCA  0E00               	movlw	0
  8446   001CCC  6E2B               	movwf	(i1___fldiv@b+3)^0,c
  8447   001CCE                     i1l3262:
  8448   001CCE  8E2A               	bsf	(i1___fldiv@b+2)^0,7,c
  8449   001CD0  6A2B               	clrf	(i1___fldiv@b+3)^0,c
  8450   001CD2  EF73  F00E         	goto	i1l3268
  8451   001CD6                     i1l3266:
  8452   001CD6  0E00               	movlw	0
  8453   001CD8  6E28               	movwf	i1___fldiv@b^0,c
  8454   001CDA  0E00               	movlw	0
  8455   001CDC  6E29               	movwf	(i1___fldiv@b+1)^0,c
  8456   001CDE  0E00               	movlw	0
  8457   001CE0  6E2A               	movwf	(i1___fldiv@b+2)^0,c
  8458   001CE2  0E00               	movlw	0
  8459   001CE4  6E2B               	movwf	(i1___fldiv@b+3)^0,c
  8460   001CE6                     i1l3268:
  8461   001CE6  502F               	movf	(i1___fldiv@a+3)^0,w,c
  8462   001CE8  0B80               	andlw	128
  8463   001CEA  1A38               	xorwf	i1___fldiv@sign^0,f,c
  8464   001CEC  502F               	movf	(i1___fldiv@a+3)^0,w,c
  8465   001CEE  242F               	addwf	(i1___fldiv@a+3)^0,w,c
  8466   001CF0  6E40               	movwf	i1___fldiv@aexp^0,c
  8467   001CF2  AE2E               	btfss	(i1___fldiv@a+2)^0,7,c
  8468   001CF4  EF7E  F00E         	goto	i1u383_21
  8469   001CF8  EF80  F00E         	goto	i1u383_20
  8470   001CFC                     i1u383_21:
  8471   001CFC  EF81  F00E         	goto	i1l3276
  8472   001D00                     i1u383_20:
  8473   001D00  8040               	bsf	i1___fldiv@aexp^0,0,c
  8474   001D02                     i1l3276:
  8475   001D02  5040               	movf	i1___fldiv@aexp^0,w,c
  8476   001D04  B4D8               	btfsc	status,2,c
  8477   001D06  EF87  F00E         	goto	i1u384_21
  8478   001D0A  EF89  F00E         	goto	i1u384_20
  8479   001D0E                     i1u384_21:
  8480   001D0E  EF9D  F00E         	goto	i1l3286
  8481   001D12                     i1u384_20:
  8482   001D12  2840               	incf	i1___fldiv@aexp^0,w,c
  8483   001D14  A4D8               	btfss	status,2,c
  8484   001D16  EF8F  F00E         	goto	i1u385_21
  8485   001D1A  EF91  F00E         	goto	i1u385_20
  8486   001D1E                     i1u385_21:
  8487   001D1E  EF99  F00E         	goto	i1l3282
  8488   001D22                     i1u385_20:
  8489   001D22  0E00               	movlw	0
  8490   001D24  6E2C               	movwf	i1___fldiv@a^0,c
  8491   001D26  0E00               	movlw	0
  8492   001D28  6E2D               	movwf	(i1___fldiv@a+1)^0,c
  8493   001D2A  0E00               	movlw	0
  8494   001D2C  6E2E               	movwf	(i1___fldiv@a+2)^0,c
  8495   001D2E  0E00               	movlw	0
  8496   001D30  6E2F               	movwf	(i1___fldiv@a+3)^0,c
  8497   001D32                     i1l3282:
  8498   001D32  8E2E               	bsf	(i1___fldiv@a+2)^0,7,c
  8499   001D34  6A2F               	clrf	(i1___fldiv@a+3)^0,c
  8500   001D36  EFA5  F00E         	goto	i1l3288
  8501   001D3A                     i1l3286:
  8502   001D3A  0E00               	movlw	0
  8503   001D3C  6E2C               	movwf	i1___fldiv@a^0,c
  8504   001D3E  0E00               	movlw	0
  8505   001D40  6E2D               	movwf	(i1___fldiv@a+1)^0,c
  8506   001D42  0E00               	movlw	0
  8507   001D44  6E2E               	movwf	(i1___fldiv@a+2)^0,c
  8508   001D46  0E00               	movlw	0
  8509   001D48  6E2F               	movwf	(i1___fldiv@a+3)^0,c
  8510   001D4A                     i1l3288:
  8511   001D4A  502C               	movf	i1___fldiv@a^0,w,c
  8512   001D4C  102D               	iorwf	(i1___fldiv@a+1)^0,w,c
  8513   001D4E  102E               	iorwf	(i1___fldiv@a+2)^0,w,c
  8514   001D50  102F               	iorwf	(i1___fldiv@a+3)^0,w,c
  8515   001D52  A4D8               	btfss	status,2,c
  8516   001D54  EFAE  F00E         	goto	i1u386_21
  8517   001D58  EFB0  F00E         	goto	i1u386_20
  8518   001D5C                     i1u386_21:
  8519   001D5C  EFC8  F00E         	goto	i1l3300
  8520   001D60                     i1u386_20:
  8521   001D60  0E00               	movlw	0
  8522   001D62  6E28               	movwf	i1___fldiv@b^0,c
  8523   001D64  0E00               	movlw	0
  8524   001D66  6E29               	movwf	(i1___fldiv@b+1)^0,c
  8525   001D68  0E00               	movlw	0
  8526   001D6A  6E2A               	movwf	(i1___fldiv@b+2)^0,c
  8527   001D6C  0E00               	movlw	0
  8528   001D6E  6E2B               	movwf	(i1___fldiv@b+3)^0,c
  8529   001D70  0E80               	movlw	128
  8530   001D72  122A               	iorwf	(i1___fldiv@b+2)^0,f,c
  8531   001D74  0E7F               	movlw	127
  8532   001D76  122B               	iorwf	(i1___fldiv@b+3)^0,f,c
  8533   001D78                     i1l3294:
  8534   001D78  5038               	movf	i1___fldiv@sign^0,w,c
  8535   001D7A  122B               	iorwf	(i1___fldiv@b+3)^0,f,c
  8536   001D7C  C028  F028         	movff	i1___fldiv@b,?i1___fldiv
  8537   001D80  C029  F029         	movff	i1___fldiv@b+1,?i1___fldiv+1
  8538   001D84  C02A  F02A         	movff	i1___fldiv@b+2,?i1___fldiv+2
  8539   001D88  C02B  F02B         	movff	i1___fldiv@b+3,?i1___fldiv+3
  8540   001D8C  EF08  F010         	goto	i1l902
  8541   001D90                     i1l3300:
  8542   001D90  503F               	movf	i1___fldiv@bexp^0,w,c
  8543   001D92  A4D8               	btfss	status,2,c
  8544   001D94  EFCE  F00E         	goto	i1u387_21
  8545   001D98  EFD0  F00E         	goto	i1u387_20
  8546   001D9C                     i1u387_21:
  8547   001D9C  EFDA  F00E         	goto	i1l3308
  8548   001DA0                     i1u387_20:
  8549   001DA0  0E00               	movlw	0
  8550   001DA2  6E28               	movwf	?i1___fldiv^0,c
  8551   001DA4  0E00               	movlw	0
  8552   001DA6  6E29               	movwf	(?i1___fldiv+1)^0,c
  8553   001DA8  0E00               	movlw	0
  8554   001DAA  6E2A               	movwf	(?i1___fldiv+2)^0,c
  8555   001DAC  0E00               	movlw	0
  8556   001DAE  6E2B               	movwf	(?i1___fldiv+3)^0,c
  8557   001DB0  EF08  F010         	goto	i1l902
  8558   001DB4                     i1l3308:
  8559   001DB4  5040               	movf	i1___fldiv@aexp^0,w,c
  8560   001DB6  C03F  F030         	movff	i1___fldiv@bexp,??i1___fldiv
  8561   001DBA  6A31               	clrf	(??i1___fldiv+1)^0,c
  8562   001DBC  5E30               	subwf	??i1___fldiv^0,f,c
  8563   001DBE  0E00               	movlw	0
  8564   001DC0  5A31               	subwfb	(??i1___fldiv+1)^0,f,c
  8565   001DC2  0E7F               	movlw	127
  8566   001DC4  2430               	addwf	??i1___fldiv^0,w,c
  8567   001DC6  6E39               	movwf	i1___fldiv@new_exp^0,c
  8568   001DC8  0E00               	movlw	0
  8569   001DCA  2031               	addwfc	(??i1___fldiv+1)^0,w,c
  8570   001DCC  6E3A               	movwf	(i1___fldiv@new_exp+1)^0,c
  8571   001DCE  C028  F034         	movff	i1___fldiv@b,i1___fldiv@rem
  8572   001DD2  C029  F035         	movff	i1___fldiv@b+1,i1___fldiv@rem+1
  8573   001DD6  C02A  F036         	movff	i1___fldiv@b+2,i1___fldiv@rem+2
  8574   001DDA  C02B  F037         	movff	i1___fldiv@b+3,i1___fldiv@rem+3
  8575   001DDE  0E00               	movlw	0
  8576   001DE0  6E28               	movwf	i1___fldiv@b^0,c
  8577   001DE2  0E00               	movlw	0
  8578   001DE4  6E29               	movwf	(i1___fldiv@b+1)^0,c
  8579   001DE6  0E00               	movlw	0
  8580   001DE8  6E2A               	movwf	(i1___fldiv@b+2)^0,c
  8581   001DEA  0E00               	movlw	0
  8582   001DEC  6E2B               	movwf	(i1___fldiv@b+3)^0,c
  8583   001DEE  0E00               	movlw	0
  8584   001DF0  6E3B               	movwf	i1___fldiv@grs^0,c
  8585   001DF2  0E00               	movlw	0
  8586   001DF4  6E3C               	movwf	(i1___fldiv@grs+1)^0,c
  8587   001DF6  0E00               	movlw	0
  8588   001DF8  6E3D               	movwf	(i1___fldiv@grs+2)^0,c
  8589   001DFA  0E00               	movlw	0
  8590   001DFC  6E3E               	movwf	(i1___fldiv@grs+3)^0,c
  8591   001DFE  6A40               	clrf	i1___fldiv@aexp^0,c
  8592   001E00  EF3A  F00F         	goto	i1l904
  8593   001E04                     i1l3318:
  8594   001E04  5040               	movf	i1___fldiv@aexp^0,w,c
  8595   001E06  B4D8               	btfsc	status,2,c
  8596   001E08  EF08  F00F         	goto	i1u388_21
  8597   001E0C  EF0A  F00F         	goto	i1u388_20
  8598   001E10                     i1u388_21:
  8599   001E10  EF21  F00F         	goto	i1l3326
  8600   001E14                     i1u388_20:
  8601   001E14  90D8               	bcf	status,0,c
  8602   001E16  3634               	rlcf	i1___fldiv@rem^0,f,c
  8603   001E18  3635               	rlcf	(i1___fldiv@rem+1)^0,f,c
  8604   001E1A  3636               	rlcf	(i1___fldiv@rem+2)^0,f,c
  8605   001E1C  3637               	rlcf	(i1___fldiv@rem+3)^0,f,c
  8606   001E1E  90D8               	bcf	status,0,c
  8607   001E20  3628               	rlcf	i1___fldiv@b^0,f,c
  8608   001E22  3629               	rlcf	(i1___fldiv@b+1)^0,f,c
  8609   001E24  362A               	rlcf	(i1___fldiv@b+2)^0,f,c
  8610   001E26  362B               	rlcf	(i1___fldiv@b+3)^0,f,c
  8611   001E28  AE3E               	btfss	(i1___fldiv@grs+3)^0,7,c
  8612   001E2A  EF19  F00F         	goto	i1u389_21
  8613   001E2E  EF1B  F00F         	goto	i1u389_20
  8614   001E32                     i1u389_21:
  8615   001E32  EF1C  F00F         	goto	i1l907
  8616   001E36                     i1u389_20:
  8617   001E36  8028               	bsf	i1___fldiv@b^0,0,c
  8618   001E38                     i1l907:
  8619   001E38  90D8               	bcf	status,0,c
  8620   001E3A  363B               	rlcf	i1___fldiv@grs^0,f,c
  8621   001E3C  363C               	rlcf	(i1___fldiv@grs+1)^0,f,c
  8622   001E3E  363D               	rlcf	(i1___fldiv@grs+2)^0,f,c
  8623   001E40  363E               	rlcf	(i1___fldiv@grs+3)^0,f,c
  8624   001E42                     i1l3326:
  8625   001E42  502C               	movf	i1___fldiv@a^0,w,c
  8626   001E44  5C34               	subwf	i1___fldiv@rem^0,w,c
  8627   001E46  502D               	movf	(i1___fldiv@a+1)^0,w,c
  8628   001E48  5835               	subwfb	(i1___fldiv@rem+1)^0,w,c
  8629   001E4A  502E               	movf	(i1___fldiv@a+2)^0,w,c
  8630   001E4C  5836               	subwfb	(i1___fldiv@rem+2)^0,w,c
  8631   001E4E  502F               	movf	(i1___fldiv@a+3)^0,w,c
  8632   001E50  5837               	subwfb	(i1___fldiv@rem+3)^0,w,c
  8633   001E52  A0D8               	btfss	status,0,c
  8634   001E54  EF2E  F00F         	goto	i1u390_21
  8635   001E58  EF30  F00F         	goto	i1u390_20
  8636   001E5C                     i1u390_21:
  8637   001E5C  EF39  F00F         	goto	i1l3332
  8638   001E60                     i1u390_20:
  8639   001E60  8C3E               	bsf	(i1___fldiv@grs+3)^0,6,c
  8640   001E62  502C               	movf	i1___fldiv@a^0,w,c
  8641   001E64  5E34               	subwf	i1___fldiv@rem^0,f,c
  8642   001E66  502D               	movf	(i1___fldiv@a+1)^0,w,c
  8643   001E68  5A35               	subwfb	(i1___fldiv@rem+1)^0,f,c
  8644   001E6A  502E               	movf	(i1___fldiv@a+2)^0,w,c
  8645   001E6C  5A36               	subwfb	(i1___fldiv@rem+2)^0,f,c
  8646   001E6E  502F               	movf	(i1___fldiv@a+3)^0,w,c
  8647   001E70  5A37               	subwfb	(i1___fldiv@rem+3)^0,f,c
  8648   001E72                     i1l3332:
  8649   001E72  2A40               	incf	i1___fldiv@aexp^0,f,c
  8650   001E74                     i1l904:
  8651   001E74  0E19               	movlw	25
  8652   001E76  6440               	cpfsgt	i1___fldiv@aexp^0,c
  8653   001E78  EF40  F00F         	goto	i1u391_21
  8654   001E7C  EF42  F00F         	goto	i1u391_20
  8655   001E80                     i1u391_21:
  8656   001E80  EF02  F00F         	goto	i1l3318
  8657   001E84                     i1u391_20:
  8658   001E84  5034               	movf	i1___fldiv@rem^0,w,c
  8659   001E86  1035               	iorwf	(i1___fldiv@rem+1)^0,w,c
  8660   001E88  1036               	iorwf	(i1___fldiv@rem+2)^0,w,c
  8661   001E8A  1037               	iorwf	(i1___fldiv@rem+3)^0,w,c
  8662   001E8C  B4D8               	btfsc	status,2,c
  8663   001E8E  EF4B  F00F         	goto	i1u392_21
  8664   001E92  EF4D  F00F         	goto	i1u392_20
  8665   001E96                     i1u392_21:
  8666   001E96  EF65  F00F         	goto	i1l3344
  8667   001E9A                     i1u392_20:
  8668   001E9A  803B               	bsf	i1___fldiv@grs^0,0,c
  8669   001E9C  EF65  F00F         	goto	i1l3344
  8670   001EA0                     i1l3338:
  8671   001EA0  90D8               	bcf	status,0,c
  8672   001EA2  3628               	rlcf	i1___fldiv@b^0,f,c
  8673   001EA4  3629               	rlcf	(i1___fldiv@b+1)^0,f,c
  8674   001EA6  362A               	rlcf	(i1___fldiv@b+2)^0,f,c
  8675   001EA8  362B               	rlcf	(i1___fldiv@b+3)^0,f,c
  8676   001EAA  AE3E               	btfss	(i1___fldiv@grs+3)^0,7,c
  8677   001EAC  EF5A  F00F         	goto	i1u393_21
  8678   001EB0  EF5C  F00F         	goto	i1u393_20
  8679   001EB4                     i1u393_21:
  8680   001EB4  EF5D  F00F         	goto	i1l913
  8681   001EB8                     i1u393_20:
  8682   001EB8  8028               	bsf	i1___fldiv@b^0,0,c
  8683   001EBA                     i1l913:
  8684   001EBA  90D8               	bcf	status,0,c
  8685   001EBC  363B               	rlcf	i1___fldiv@grs^0,f,c
  8686   001EBE  363C               	rlcf	(i1___fldiv@grs+1)^0,f,c
  8687   001EC0  363D               	rlcf	(i1___fldiv@grs+2)^0,f,c
  8688   001EC2  363E               	rlcf	(i1___fldiv@grs+3)^0,f,c
  8689   001EC4  0639               	decf	i1___fldiv@new_exp^0,f,c
  8690   001EC6  A0D8               	btfss	status,0,c
  8691   001EC8  063A               	decf	(i1___fldiv@new_exp+1)^0,f,c
  8692   001ECA                     i1l3344:
  8693   001ECA  AE2A               	btfss	(i1___fldiv@b+2)^0,7,c
  8694   001ECC  EF6A  F00F         	goto	i1u394_21
  8695   001ED0  EF6C  F00F         	goto	i1u394_20
  8696   001ED4                     i1u394_21:
  8697   001ED4  EF50  F00F         	goto	i1l3338
  8698   001ED8                     i1u394_20:
  8699   001ED8  6A40               	clrf	i1___fldiv@aexp^0,c
  8700   001EDA  AE3E               	btfss	(i1___fldiv@grs+3)^0,7,c
  8701   001EDC  EF72  F00F         	goto	i1u395_21
  8702   001EE0  EF74  F00F         	goto	i1u395_20
  8703   001EE4                     i1u395_21:
  8704   001EE4  EF98  F00F         	goto	i1l915
  8705   001EE8                     i1u395_20:
  8706   001EE8  0EFF               	movlw	255
  8707   001EEA  143B               	andwf	i1___fldiv@grs^0,w,c
  8708   001EEC  6E30               	movwf	??i1___fldiv^0,c
  8709   001EEE  0EFF               	movlw	255
  8710   001EF0  143C               	andwf	(i1___fldiv@grs+1)^0,w,c
  8711   001EF2  6E31               	movwf	(??i1___fldiv+1)^0,c
  8712   001EF4  0EFF               	movlw	255
  8713   001EF6  143D               	andwf	(i1___fldiv@grs+2)^0,w,c
  8714   001EF8  6E32               	movwf	(??i1___fldiv+2)^0,c
  8715   001EFA  0E7F               	movlw	127
  8716   001EFC  143E               	andwf	(i1___fldiv@grs+3)^0,w,c
  8717   001EFE  6E33               	movwf	(??i1___fldiv+3)^0,c
  8718   001F00  5030               	movf	??i1___fldiv^0,w,c
  8719   001F02  1031               	iorwf	(??i1___fldiv+1)^0,w,c
  8720   001F04  1032               	iorwf	(??i1___fldiv+2)^0,w,c
  8721   001F06  1033               	iorwf	(??i1___fldiv+3)^0,w,c
  8722   001F08  B4D8               	btfsc	status,2,c
  8723   001F0A  EF89  F00F         	goto	i1u396_21
  8724   001F0E  EF8B  F00F         	goto	i1u396_20
  8725   001F12                     i1u396_21:
  8726   001F12  EF8F  F00F         	goto	i1l916
  8727   001F16                     i1u396_20:
  8728   001F16                     i1l3348:
  8729   001F16  0E01               	movlw	1
  8730   001F18  6E40               	movwf	i1___fldiv@aexp^0,c
  8731   001F1A  EF98  F00F         	goto	i1l915
  8732   001F1E                     i1l916:
  8733   001F1E  A028               	btfss	i1___fldiv@b^0,0,c
  8734   001F20  EF94  F00F         	goto	i1u397_21
  8735   001F24  EF96  F00F         	goto	i1u397_20
  8736   001F28                     i1u397_21:
  8737   001F28  EF98  F00F         	goto	i1l915
  8738   001F2C                     i1u397_20:
  8739   001F2C  EF8B  F00F         	goto	i1l3348
  8740   001F30                     i1l915:
  8741   001F30  5040               	movf	i1___fldiv@aexp^0,w,c
  8742   001F32  B4D8               	btfsc	status,2,c
  8743   001F34  EF9E  F00F         	goto	i1u398_21
  8744   001F38  EFA0  F00F         	goto	i1u398_20
  8745   001F3C                     i1u398_21:
  8746   001F3C  EFC4  F00F         	goto	i1l3360
  8747   001F40                     i1u398_20:
  8748   001F40  0E01               	movlw	1
  8749   001F42  2628               	addwf	i1___fldiv@b^0,f,c
  8750   001F44  0E00               	movlw	0
  8751   001F46  2229               	addwfc	(i1___fldiv@b+1)^0,f,c
  8752   001F48  222A               	addwfc	(i1___fldiv@b+2)^0,f,c
  8753   001F4A  222B               	addwfc	(i1___fldiv@b+3)^0,f,c
  8754   001F4C  A02B               	btfss	(i1___fldiv@b+3)^0,0,c
  8755   001F4E  EFAB  F00F         	goto	i1u399_21
  8756   001F52  EFAD  F00F         	goto	i1u399_20
  8757   001F56                     i1u399_21:
  8758   001F56  EFC4  F00F         	goto	i1l3360
  8759   001F5A                     i1u399_20:
  8760   001F5A  C028  F030         	movff	i1___fldiv@b,??i1___fldiv
  8761   001F5E  C029  F031         	movff	i1___fldiv@b+1,??i1___fldiv+1
  8762   001F62  C02A  F032         	movff	i1___fldiv@b+2,??i1___fldiv+2
  8763   001F66  C02B  F033         	movff	i1___fldiv@b+3,??i1___fldiv+3
  8764   001F6A  3433               	rlcf	(??i1___fldiv+3)^0,w,c
  8765   001F6C  3233               	rrcf	(??i1___fldiv+3)^0,f,c
  8766   001F6E  3232               	rrcf	(??i1___fldiv+2)^0,f,c
  8767   001F70  3231               	rrcf	(??i1___fldiv+1)^0,f,c
  8768   001F72  3230               	rrcf	??i1___fldiv^0,f,c
  8769   001F74  C030  F028         	movff	??i1___fldiv,i1___fldiv@b
  8770   001F78  C031  F029         	movff	??i1___fldiv+1,i1___fldiv@b+1
  8771   001F7C  C032  F02A         	movff	??i1___fldiv+2,i1___fldiv@b+2
  8772   001F80  C033  F02B         	movff	??i1___fldiv+3,i1___fldiv@b+3
  8773   001F84  4A39               	infsnz	i1___fldiv@new_exp^0,f,c
  8774   001F86  2A3A               	incf	(i1___fldiv@new_exp+1)^0,f,c
  8775   001F88                     i1l3360:
  8776   001F88  BE3A               	btfsc	(i1___fldiv@new_exp+1)^0,7,c
  8777   001F8A  EFCF  F00F         	goto	i1u400_21
  8778   001F8E  503A               	movf	(i1___fldiv@new_exp+1)^0,w,c
  8779   001F90  E108               	bnz	i1u400_20
  8780   001F92  2839               	incf	i1___fldiv@new_exp^0,w,c
  8781   001F94  A0D8               	btfss	status,0,c
  8782   001F96  EFCF  F00F         	goto	i1u400_21
  8783   001F9A  EFD1  F00F         	goto	i1u400_20
  8784   001F9E                     i1u400_21:
  8785   001F9E  EFDC  F00F         	goto	i1l3364
  8786   001FA2                     i1u400_20:
  8787   001FA2  0E00               	movlw	0
  8788   001FA4  6E3A               	movwf	(i1___fldiv@new_exp+1)^0,c
  8789   001FA6  6839               	setf	i1___fldiv@new_exp^0,c
  8790   001FA8  0E00               	movlw	0
  8791   001FAA  6E28               	movwf	i1___fldiv@b^0,c
  8792   001FAC  0E00               	movlw	0
  8793   001FAE  6E29               	movwf	(i1___fldiv@b+1)^0,c
  8794   001FB0  0E00               	movlw	0
  8795   001FB2  6E2A               	movwf	(i1___fldiv@b+2)^0,c
  8796   001FB4  0E00               	movlw	0
  8797   001FB6  6E2B               	movwf	(i1___fldiv@b+3)^0,c
  8798   001FB8                     i1l3364:
  8799   001FB8  BE3A               	btfsc	(i1___fldiv@new_exp+1)^0,7,c
  8800   001FBA  EFE9  F00F         	goto	i1u401_20
  8801   001FBE  503A               	movf	(i1___fldiv@new_exp+1)^0,w,c
  8802   001FC0  E106               	bnz	i1u401_21
  8803   001FC2  0439               	decf	i1___fldiv@new_exp^0,w,c
  8804   001FC4  B0D8               	btfsc	status,0,c
  8805   001FC6  EFE7  F00F         	goto	i1u401_21
  8806   001FCA  EFE9  F00F         	goto	i1u401_20
  8807   001FCE                     i1u401_21:
  8808   001FCE  EFF6  F00F         	goto	i1l3370
  8809   001FD2                     i1u401_20:
  8810   001FD2  0E00               	movlw	0
  8811   001FD4  6E3A               	movwf	(i1___fldiv@new_exp+1)^0,c
  8812   001FD6  0E00               	movlw	0
  8813   001FD8  6E39               	movwf	i1___fldiv@new_exp^0,c
  8814   001FDA  0E00               	movlw	0
  8815   001FDC  6E28               	movwf	i1___fldiv@b^0,c
  8816   001FDE  0E00               	movlw	0
  8817   001FE0  6E29               	movwf	(i1___fldiv@b+1)^0,c
  8818   001FE2  0E00               	movlw	0
  8819   001FE4  6E2A               	movwf	(i1___fldiv@b+2)^0,c
  8820   001FE6  0E00               	movlw	0
  8821   001FE8  6E2B               	movwf	(i1___fldiv@b+3)^0,c
  8822   001FEA  6A38               	clrf	i1___fldiv@sign^0,c
  8823   001FEC                     i1l3370:
  8824   001FEC  C039  F03F         	movff	i1___fldiv@new_exp,i1___fldiv@bexp
  8825   001FF0  A03F               	btfss	i1___fldiv@bexp^0,0,c
  8826   001FF2  EFFD  F00F         	goto	i1u402_21
  8827   001FF6  EFFF  F00F         	goto	i1u402_20
  8828   001FFA                     i1u402_21:
  8829   001FFA  EF02  F010         	goto	i1l3376
  8830   001FFE                     i1u402_20:
  8831   001FFE  8E2A               	bsf	(i1___fldiv@b+2)^0,7,c
  8832   002000  EF03  F010         	goto	i1l3378
  8833   002004                     i1l3376:
  8834   002004  9E2A               	bcf	(i1___fldiv@b+2)^0,7,c
  8835   002006                     i1l3378:
  8836   002006  90D8               	bcf	status,0,c
  8837   002008  303F               	rrcf	i1___fldiv@bexp^0,w,c
  8838   00200A  6E2B               	movwf	(i1___fldiv@b+3)^0,c
  8839   00200C  EFBC  F00E         	goto	i1l3294
  8840   002010                     i1l902:
  8841   002010  0012               	return		;funcret
  8842   002012                     __end_ofi1___fldiv:
  8843                           	callstack 0
  8844                           
  8845 ;; *************** function i1_Timer2GetPrescaler *****************
  8846 ;; Defined at:
  8847 ;;		line 31 in file "utils/timer.c"
  8848 ;; Parameters:    Size  Location     Type
  8849 ;;		None
  8850 ;; Auto vars:     Size  Location     Type
  8851 ;;		None
  8852 ;; Return value:  Size  Location     Type
  8853 ;;                  2    0[COMRAM] int 
  8854 ;; Registers used:
  8855 ;;		None
  8856 ;; Tracked objects:
  8857 ;;		On entry : 0/0
  8858 ;;		On exit  : 0/0
  8859 ;;		Unchanged: 0/0
  8860 ;; Data sizes:     COMRAM   BANK0   BANK1   BANK2   BANK3   BANK4   BANK5
  8861 ;;      Params:         2       0       0       0       0       0       0
  8862 ;;      Locals:         0       0       0       0       0       0       0
  8863 ;;      Temps:          0       0       0       0       0       0       0
  8864 ;;      Totals:         2       0       0       0       0       0       0
  8865 ;;Total ram usage:        2 bytes
  8866 ;; Hardware stack levels used: 1
  8867 ;; Hardware stack levels required when called: 1
  8868 ;; This function calls:
  8869 ;;		Nothing
  8870 ;; This function is called by:
  8871 ;;		i1_PWMSetDutyCycle
  8872 ;; This function uses a non-reentrant model
  8873 ;;
  8874                           
  8875                           	psect	text30
  8876   003166                     __ptext30:
  8877                           	callstack 0
  8878   003166                     i1_Timer2GetPrescaler:
  8879                           	callstack 22
  8880   003166                     
  8881                           ;utils/timer.c: 32:     return Timer2Prescaler;
  8882   003166  C1D3  F001         	movff	_Timer2Prescaler,?i1_Timer2GetPrescaler
  8883   00316A  C1D4  F002         	movff	_Timer2Prescaler+1,?i1_Timer2GetPrescaler+1
  8884   00316E  0012               	return		;funcret
  8885   003170                     __end_ofi1_Timer2GetPrescaler:
  8886                           	callstack 0
  8887                           
  8888 ;; *************** function _atoi *****************
  8889 ;; Defined at:
  8890 ;;		line 5 in file "/Applications/microchip/xc8/v2.50/pic/sources/c99/common/atoi.c"
  8891 ;; Parameters:    Size  Location     Type
  8892 ;;  s               1    0[COMRAM] PTR const unsigned char 
  8893 ;;		 -> LowIsr@str(20), 
  8894 ;; Auto vars:     Size  Location     Type
  8895 ;;  n               2    6[COMRAM] int 
  8896 ;;  neg             1    5[COMRAM] _Bool 
  8897 ;; Return value:  Size  Location     Type
  8898 ;;                  2    0[COMRAM] int 
  8899 ;; Registers used:
  8900 ;;		wreg, fsr2l, fsr2h, status,2, status,0, prodl, prodh
  8901 ;; Tracked objects:
  8902 ;;		On entry : 0/0
  8903 ;;		On exit  : 0/0
  8904 ;;		Unchanged: 0/0
  8905 ;; Data sizes:     COMRAM   BANK0   BANK1   BANK2   BANK3   BANK4   BANK5
  8906 ;;      Params:         2       0       0       0       0       0       0
  8907 ;;      Locals:         3       0       0       0       0       0       0
  8908 ;;      Temps:          3       0       0       0       0       0       0
  8909 ;;      Totals:         8       0       0       0       0       0       0
  8910 ;;Total ram usage:        8 bytes
  8911 ;; Hardware stack levels used: 1
  8912 ;; Hardware stack levels required when called: 1
  8913 ;; This function calls:
  8914 ;;		Nothing
  8915 ;; This function is called by:
  8916 ;;		_LowIsr
  8917 ;; This function uses a non-reentrant model
  8918 ;;
  8919                           
  8920                           	psect	text31
  8921   0029F0                     __ptext31:
  8922                           	callstack 0
  8923   0029F0                     _atoi:
  8924                           	callstack 23
  8925   0029F0  0E00               	movlw	0
  8926   0029F2  6E08               	movwf	(atoi@n+1)^0,c
  8927   0029F4  0E00               	movlw	0
  8928   0029F6  6E07               	movwf	atoi@n^0,c
  8929   0029F8  6A06               	clrf	atoi@neg^0,c
  8930   0029FA  EF00  F015         	goto	i1l3646
  8931   0029FE                     i1l3644:
  8932   0029FE  2A01               	incf	atoi@s^0,f,c
  8933   002A00                     i1l3646:
  8934   002A00  5001               	movf	atoi@s^0,w,c
  8935   002A02  6ED9               	movwf	fsr2l,c
  8936   002A04  6ADA               	clrf	fsr2h,c
  8937   002A06  0E20               	movlw	32
  8938   002A08  18DE               	xorwf	postinc2,w,c
  8939   002A0A  B4D8               	btfsc	status,2,c
  8940   002A0C  EF0A  F015         	goto	i1u445_21
  8941   002A10  EF0C  F015         	goto	i1u445_20
  8942   002A14                     i1u445_21:
  8943   002A14  EFFF  F014         	goto	i1l3644
  8944   002A18                     i1u445_20:
  8945   002A18  5001               	movf	atoi@s^0,w,c
  8946   002A1A  6ED9               	movwf	fsr2l,c
  8947   002A1C  6ADA               	clrf	fsr2h,c
  8948   002A1E  50DF               	movf	indf2,w,c
  8949   002A20  6E03               	movwf	??_atoi^0,c
  8950   002A22  0EF7               	movlw	247
  8951   002A24  2603               	addwf	??_atoi^0,f,c
  8952   002A26  0E04               	movlw	4
  8953   002A28  6403               	cpfsgt	??_atoi^0,c
  8954   002A2A  EF19  F015         	goto	i1u446_21
  8955   002A2E  EF1B  F015         	goto	i1u446_20
  8956   002A32                     i1u446_21:
  8957   002A32  EFFF  F014         	goto	i1l3644
  8958   002A36                     i1u446_20:
  8959   002A36  5001               	movf	atoi@s^0,w,c
  8960   002A38  6ED9               	movwf	fsr2l,c
  8961   002A3A  6ADA               	clrf	fsr2h,c
  8962   002A3C  0E2D               	movlw	45
  8963   002A3E  18DE               	xorwf	postinc2,w,c
  8964   002A40  A4D8               	btfss	status,2,c
  8965   002A42  EF25  F015         	goto	i1u447_21
  8966   002A46  EF27  F015         	goto	i1u447_20
  8967   002A4A                     i1u447_21:
  8968   002A4A  EF2C  F015         	goto	i1l3656
  8969   002A4E                     i1u447_20:
  8970   002A4E  0E01               	movlw	1
  8971   002A50  6E06               	movwf	atoi@neg^0,c
  8972   002A52                     i1l3654:
  8973   002A52  2A01               	incf	atoi@s^0,f,c
  8974   002A54  EF54  F015         	goto	i1l3664
  8975   002A58                     i1l3656:
  8976   002A58  5001               	movf	atoi@s^0,w,c
  8977   002A5A  6ED9               	movwf	fsr2l,c
  8978   002A5C  6ADA               	clrf	fsr2h,c
  8979   002A5E  0E2B               	movlw	43
  8980   002A60  18DE               	xorwf	postinc2,w,c
  8981   002A62  A4D8               	btfss	status,2,c
  8982   002A64  EF36  F015         	goto	i1u448_21
  8983   002A68  EF38  F015         	goto	i1u448_20
  8984   002A6C                     i1u448_21:
  8985   002A6C  EF54  F015         	goto	i1l3664
  8986   002A70                     i1u448_20:
  8987   002A70  EF29  F015         	goto	i1l3654
  8988   002A74                     i1l3660:
  8989   002A74  0E0A               	movlw	10
  8990   002A76  0207               	mulwf	atoi@n^0,c
  8991   002A78  CFF3 F003          	movff	prodl,??_atoi
  8992   002A7C  CFF4 F004          	movff	prodh,??_atoi+1
  8993   002A80  0208               	mulwf	(atoi@n+1)^0,c
  8994   002A82  50F3               	movf	prodl,w,c
  8995   002A84  2604               	addwf	(??_atoi+1)^0,f,c
  8996   002A86  5001               	movf	atoi@s^0,w,c
  8997   002A88  6ED9               	movwf	fsr2l,c
  8998   002A8A  6ADA               	clrf	fsr2h,c
  8999   002A8C  50DF               	movf	indf2,w,c
  9000   002A8E  6E05               	movwf	(??_atoi+2)^0,c
  9001   002A90  5005               	movf	(??_atoi+2)^0,w,c
  9002   002A92  5E03               	subwf	??_atoi^0,f,c
  9003   002A94  0E00               	movlw	0
  9004   002A96  5A04               	subwfb	(??_atoi+1)^0,f,c
  9005   002A98  0E30               	movlw	48
  9006   002A9A  2403               	addwf	??_atoi^0,w,c
  9007   002A9C  6E07               	movwf	atoi@n^0,c
  9008   002A9E  0E00               	movlw	0
  9009   002AA0  2004               	addwfc	(??_atoi+1)^0,w,c
  9010   002AA2  6E08               	movwf	(atoi@n+1)^0,c
  9011   002AA4  EF29  F015         	goto	i1l3654
  9012   002AA8                     i1l3664:
  9013   002AA8  5001               	movf	atoi@s^0,w,c
  9014   002AAA  6ED9               	movwf	fsr2l,c
  9015   002AAC  6ADA               	clrf	fsr2h,c
  9016   002AAE  50DF               	movf	indf2,w,c
  9017   002AB0  6E03               	movwf	??_atoi^0,c
  9018   002AB2  0ED0               	movlw	208
  9019   002AB4  2603               	addwf	??_atoi^0,f,c
  9020   002AB6  0E09               	movlw	9
  9021   002AB8  6403               	cpfsgt	??_atoi^0,c
  9022   002ABA  EF61  F015         	goto	i1u449_21
  9023   002ABE  EF63  F015         	goto	i1u449_20
  9024   002AC2                     i1u449_21:
  9025   002AC2  EF3A  F015         	goto	i1l3660
  9026   002AC6                     i1u449_20:
  9027   002AC6  5006               	movf	atoi@neg^0,w,c
  9028   002AC8  A4D8               	btfss	status,2,c
  9029   002ACA  EF69  F015         	goto	i1u450_21
  9030   002ACE  EF6B  F015         	goto	i1u450_20
  9031   002AD2                     i1u450_21:
  9032   002AD2  EF79  F015         	goto	i1l1004
  9033   002AD6                     i1u450_20:
  9034   002AD6  C007  F003         	movff	atoi@n,??_atoi
  9035   002ADA  C008  F004         	movff	atoi@n+1,??_atoi+1
  9036   002ADE  1E03               	comf	??_atoi^0,f,c
  9037   002AE0  1E04               	comf	(??_atoi+1)^0,f,c
  9038   002AE2  4A03               	infsnz	??_atoi^0,f,c
  9039   002AE4  2A04               	incf	(??_atoi+1)^0,f,c
  9040   002AE6  C003  F001         	movff	??_atoi,?_atoi
  9041   002AEA  C004  F002         	movff	??_atoi+1,?_atoi+1
  9042   002AEE  EF7D  F015         	goto	i1l1007
  9043   002AF2                     i1l1004:
  9044   002AF2  C007  F001         	movff	atoi@n,?_atoi
  9045   002AF6  C008  F002         	movff	atoi@n+1,?_atoi+1
  9046   002AFA                     i1l1007:
  9047   002AFA  0012               	return		;funcret
  9048   002AFC                     __end_of_atoi:
  9049                           	callstack 0
  9050                           
  9051 ;; *************** function _UartReceiveChar *****************
  9052 ;; Defined at:
  9053 ;;		line 74 in file "utils/uart.c"
  9054 ;; Parameters:    Size  Location     Type
  9055 ;;		None
  9056 ;; Auto vars:     Size  Location     Type
  9057 ;;  c               1    1[COMRAM] unsigned char 
  9058 ;; Return value:  Size  Location     Type
  9059 ;;                  1    wreg      void 
  9060 ;; Registers used:
  9061 ;;		wreg, fsr2l, fsr2h, status,2, status,0, cstack
  9062 ;; Tracked objects:
  9063 ;;		On entry : 0/0
  9064 ;;		On exit  : 0/0
  9065 ;;		Unchanged: 0/0
  9066 ;; Data sizes:     COMRAM   BANK0   BANK1   BANK2   BANK3   BANK4   BANK5
  9067 ;;      Params:         0       0       0       0       0       0       0
  9068 ;;      Locals:         1       0       0       0       0       0       0
  9069 ;;      Temps:          0       0       0       0       0       0       0
  9070 ;;      Totals:         1       0       0       0       0       0       0
  9071 ;;Total ram usage:        1 bytes
  9072 ;; Hardware stack levels used: 1
  9073 ;; Hardware stack levels required when called: 2
  9074 ;; This function calls:
  9075 ;;		_UartSendChar
  9076 ;; This function is called by:
  9077 ;;		_LowIsr
  9078 ;; This function uses a non-reentrant model
  9079 ;;
  9080                           
  9081                           	psect	text32
  9082   002F5E                     __ptext32:
  9083                           	callstack 0
  9084   002F5E                     _UartReceiveChar:
  9085                           	callstack 22
  9086   002F5E                     
  9087                           ;utils/uart.c: 75:     if(RCSTAbits.OERR == 1){
  9088   002F5E  A2AB               	btfss	171,1,c	;volatile
  9089   002F60  EFB4  F017         	goto	i1u438_21
  9090   002F64  EFB6  F017         	goto	i1u438_20
  9091   002F68                     i1u438_21:
  9092   002F68  EFB8  F017         	goto	i1l227
  9093   002F6C                     i1u438_20:
  9094   002F6C                     
  9095                           ;utils/uart.c: 77:         RCSTAbits.CREN = 0;
  9096   002F6C  98AB               	bcf	171,4,c	;volatile
  9097                           
  9098                           ;utils/uart.c: 78:         RCSTAbits.CREN = 1;
  9099   002F6E  88AB               	bsf	171,4,c	;volatile
  9100   002F70                     i1l227:
  9101                           
  9102                           ;utils/uart.c: 80:     char c = RCREG;
  9103   002F70  CFAE F002          	movff	4014,UartReceiveChar@c	;volatile
  9104   002F74                     
  9105                           ;utils/uart.c: 81:     if(c == '\r') UartSendChar('\n');
  9106   002F74  0E0D               	movlw	13
  9107   002F76  1802               	xorwf	UartReceiveChar@c^0,w,c
  9108   002F78  A4D8               	btfss	status,2,c
  9109   002F7A  EFC1  F017         	goto	i1u439_21
  9110   002F7E  EFC3  F017         	goto	i1u439_20
  9111   002F82                     i1u439_21:
  9112   002F82  EFC6  F017         	goto	i1l3606
  9113   002F86                     i1u439_20:
  9114   002F86  0E0A               	movlw	10
  9115   002F88  EC6C  F018         	call	_UartSendChar
  9116   002F8C                     i1l3606:
  9117                           
  9118                           ;utils/uart.c: 82:     uart_buffer[uart_buffer_idx++] = c;
  9119   002F8C  0E00               	movlw	low _uart_buffer
  9120   002F8E  2475               	addwf	_uart_buffer_idx^0,w,c
  9121   002F90  6ED9               	movwf	fsr2l,c
  9122   002F92  0E01               	movlw	high _uart_buffer
  9123   002F94  2076               	addwfc	(_uart_buffer_idx+1)^0,w,c
  9124   002F96  6EDA               	movwf	fsr2h,c
  9125   002F98  C002  FFDF         	movff	UartReceiveChar@c,indf2
  9126   002F9C  4A75               	infsnz	_uart_buffer_idx^0,f,c
  9127   002F9E  2A76               	incf	(_uart_buffer_idx+1)^0,f,c
  9128   002FA0                     
  9129                           ;utils/uart.c: 83:     UartSendChar(c);
  9130   002FA0  5002               	movf	UartReceiveChar@c^0,w,c
  9131   002FA2  EC6C  F018         	call	_UartSendChar
  9132   002FA6  0012               	return		;funcret
  9133   002FA8                     __end_of_UartReceiveChar:
  9134                           	callstack 0
  9135                           
  9136 ;; *************** function _UartSendChar *****************
  9137 ;; Defined at:
  9138 ;;		line 57 in file "utils/uart.c"
  9139 ;; Parameters:    Size  Location     Type
  9140 ;;  c               1    wreg     unsigned char 
  9141 ;; Auto vars:     Size  Location     Type
  9142 ;;  c               1    0[COMRAM] unsigned char 
  9143 ;; Return value:  Size  Location     Type
  9144 ;;                  1    wreg      void 
  9145 ;; Registers used:
  9146 ;;		wreg
  9147 ;; Tracked objects:
  9148 ;;		On entry : 0/0
  9149 ;;		On exit  : 0/0
  9150 ;;		Unchanged: 0/0
  9151 ;; Data sizes:     COMRAM   BANK0   BANK1   BANK2   BANK3   BANK4   BANK5
  9152 ;;      Params:         0       0       0       0       0       0       0
  9153 ;;      Locals:         1       0       0       0       0       0       0
  9154 ;;      Temps:          0       0       0       0       0       0       0
  9155 ;;      Totals:         1       0       0       0       0       0       0
  9156 ;;Total ram usage:        1 bytes
  9157 ;; Hardware stack levels used: 1
  9158 ;; Hardware stack levels required when called: 1
  9159 ;; This function calls:
  9160 ;;		Nothing
  9161 ;; This function is called by:
  9162 ;;		_UartReceiveChar
  9163 ;;		_UartSendString
  9164 ;; This function uses a non-reentrant model
  9165 ;;
  9166                           
  9167                           	psect	text33
  9168   0030D8                     __ptext33:
  9169                           	callstack 0
  9170   0030D8                     _UartSendChar:
  9171                           	callstack 22
  9172                           
  9173                           ;incstack = 0
  9174                           ;UartSendChar@c stored from wreg
  9175   0030D8  6E01               	movwf	UartSendChar@c^0,c
  9176   0030DA                     i1l212:
  9177   0030DA  A2AC               	btfss	172,1,c	;volatile
  9178   0030DC  EF72  F018         	goto	i1u372_21
  9179   0030E0  EF74  F018         	goto	i1u372_20
  9180   0030E4                     i1u372_21:
  9181   0030E4  EF6D  F018         	goto	i1l212
  9182   0030E8                     i1u372_20:
  9183   0030E8                     
  9184                           ;utils/uart.c: 59:     TXREG = c;
  9185   0030E8  C001  FFAD         	movff	UartSendChar@c,4013	;volatile
  9186   0030EC  0012               	return		;funcret
  9187   0030EE                     __end_of_UartSendChar:
  9188                           	callstack 0
  9189                           
  9190 ;; *************** function _UartGetChar *****************
  9191 ;; Defined at:
  9192 ;;		line 86 in file "utils/uart.c"
  9193 ;; Parameters:    Size  Location     Type
  9194 ;;		None
  9195 ;; Auto vars:     Size  Location     Type
  9196 ;;		None
  9197 ;; Return value:  Size  Location     Type
  9198 ;;                  1    wreg      unsigned char 
  9199 ;; Registers used:
  9200 ;;		wreg, fsr2l, fsr2h, status,2, status,0
  9201 ;; Tracked objects:
  9202 ;;		On entry : 0/0
  9203 ;;		On exit  : 0/0
  9204 ;;		Unchanged: 0/0
  9205 ;; Data sizes:     COMRAM   BANK0   BANK1   BANK2   BANK3   BANK4   BANK5
  9206 ;;      Params:         0       0       0       0       0       0       0
  9207 ;;      Locals:         0       0       0       0       0       0       0
  9208 ;;      Temps:          0       0       0       0       0       0       0
  9209 ;;      Totals:         0       0       0       0       0       0       0
  9210 ;;Total ram usage:        0 bytes
  9211 ;; Hardware stack levels used: 1
  9212 ;; Hardware stack levels required when called: 1
  9213 ;; This function calls:
  9214 ;;		Nothing
  9215 ;; This function is called by:
  9216 ;;		_LowIsr
  9217 ;; This function uses a non-reentrant model
  9218 ;;
  9219                           
  9220                           	psect	text34
  9221   00307A                     __ptext34:
  9222                           	callstack 0
  9223   00307A                     _UartGetChar:
  9224                           	callstack 23
  9225   00307A                     
  9226                           ;utils/uart.c: 87:     if(uart_buffer_idx == 0) return '\0';
  9227   00307A  5075               	movf	_uart_buffer_idx^0,w,c
  9228   00307C  1076               	iorwf	(_uart_buffer_idx+1)^0,w,c
  9229   00307E  A4D8               	btfss	status,2,c
  9230   003080  EF44  F018         	goto	i1u440_21
  9231   003084  EF46  F018         	goto	i1u440_20
  9232   003088                     i1u440_21:
  9233   003088  EF49  F018         	goto	i1l3618
  9234   00308C                     i1u440_20:
  9235   00308C  0E00               	movlw	0
  9236   00308E  EF50  F018         	goto	i1l233
  9237   003092                     i1l3618:
  9238                           
  9239                           ;utils/uart.c: 88:     return uart_buffer[uart_buffer_idx - 1];
  9240   003092  0EFF               	movlw	low (_uart_buffer+65535)
  9241   003094  2475               	addwf	_uart_buffer_idx^0,w,c
  9242   003096  6ED9               	movwf	fsr2l,c
  9243   003098  0E00               	movlw	high (_uart_buffer+65535)
  9244   00309A  2076               	addwfc	(_uart_buffer_idx+1)^0,w,c
  9245   00309C  6EDA               	movwf	fsr2h,c
  9246   00309E  50DF               	movf	indf2,w,c
  9247   0030A0                     i1l233:
  9248   0030A0  0012               	return		;funcret
  9249   0030A2                     __end_of_UartGetChar:
  9250                           	callstack 0
  9251                           
  9252 ;; *************** function _UartCopyBufferToString *****************
  9253 ;; Defined at:
  9254 ;;		line 108 in file "utils/uart.c"
  9255 ;; Parameters:    Size  Location     Type
  9256 ;;  str             1    0[COMRAM] PTR unsigned char 
  9257 ;;		 -> LowIsr@str(20), 
  9258 ;; Auto vars:     Size  Location     Type
  9259 ;;  i               2    2[COMRAM] int 
  9260 ;; Return value:  Size  Location     Type
  9261 ;;                  1    wreg      void 
  9262 ;; Registers used:
  9263 ;;		wreg, fsr1l, fsr1h, fsr2l, fsr2h, status,2, status,0
  9264 ;; Tracked objects:
  9265 ;;		On entry : 0/0
  9266 ;;		On exit  : 0/0
  9267 ;;		Unchanged: 0/0
  9268 ;; Data sizes:     COMRAM   BANK0   BANK1   BANK2   BANK3   BANK4   BANK5
  9269 ;;      Params:         1       0       0       0       0       0       0
  9270 ;;      Locals:         2       0       0       0       0       0       0
  9271 ;;      Temps:          1       0       0       0       0       0       0
  9272 ;;      Totals:         4       0       0       0       0       0       0
  9273 ;;Total ram usage:        4 bytes
  9274 ;; Hardware stack levels used: 1
  9275 ;; Hardware stack levels required when called: 1
  9276 ;; This function calls:
  9277 ;;		Nothing
  9278 ;; This function is called by:
  9279 ;;		_LowIsr
  9280 ;; This function uses a non-reentrant model
  9281 ;;
  9282                           
  9283                           	psect	text35
  9284   002EC0                     __ptext35:
  9285                           	callstack 0
  9286   002EC0                     _UartCopyBufferToString:
  9287                           	callstack 23
  9288   002EC0                     
  9289                           ;utils/uart.c: 109:     for(int i = 0; i < uart_buffer_idx; i++) {
  9290   002EC0  0E00               	movlw	0
  9291   002EC2  6E04               	movwf	(UartCopyBufferToString@i+1)^0,c
  9292   002EC4  0E00               	movlw	0
  9293   002EC6  6E03               	movwf	UartCopyBufferToString@i^0,c
  9294   002EC8  EF74  F017         	goto	i1l3628
  9295   002ECC                     i1l3624:
  9296                           
  9297                           ;utils/uart.c: 110:         str[i] = uart_buffer[i];
  9298   002ECC  0E00               	movlw	low _uart_buffer
  9299   002ECE  2403               	addwf	UartCopyBufferToString@i^0,w,c
  9300   002ED0  6ED9               	movwf	fsr2l,c
  9301   002ED2  0E01               	movlw	high _uart_buffer
  9302   002ED4  2004               	addwfc	(UartCopyBufferToString@i+1)^0,w,c
  9303   002ED6  6EDA               	movwf	fsr2h,c
  9304   002ED8  5001               	movf	UartCopyBufferToString@str^0,w,c
  9305   002EDA  2403               	addwf	UartCopyBufferToString@i^0,w,c
  9306   002EDC  6EE1               	movwf	fsr1l,c
  9307   002EDE  6AE2               	clrf	fsr1h,c
  9308   002EE0  CFDF FFE7          	movff	indf2,indf1
  9309   002EE4                     
  9310                           ;utils/uart.c: 111:     }
  9311   002EE4  4A03               	infsnz	UartCopyBufferToString@i^0,f,c
  9312   002EE6  2A04               	incf	(UartCopyBufferToString@i+1)^0,f,c
  9313   002EE8                     i1l3628:
  9314   002EE8  5075               	movf	_uart_buffer_idx^0,w,c
  9315   002EEA  5C03               	subwf	UartCopyBufferToString@i^0,w,c
  9316   002EEC  5004               	movf	(UartCopyBufferToString@i+1)^0,w,c
  9317   002EEE  0A80               	xorlw	128
  9318   002EF0  6E02               	movwf	??_UartCopyBufferToString^0,c
  9319   002EF2  5076               	movf	(_uart_buffer_idx+1)^0,w,c
  9320   002EF4  0A80               	xorlw	128
  9321   002EF6  5802               	subwfb	??_UartCopyBufferToString^0,w,c
  9322   002EF8  A0D8               	btfss	status,0,c
  9323   002EFA  EF81  F017         	goto	i1u441_21
  9324   002EFE  EF83  F017         	goto	i1u441_20
  9325   002F02                     i1u441_21:
  9326   002F02  EF66  F017         	goto	i1l3624
  9327   002F06                     i1u441_20:
  9328   002F06                     
  9329                           ;utils/uart.c: 112:     str[uart_buffer_idx] = '\0';
  9330   002F06  5001               	movf	UartCopyBufferToString@str^0,w,c
  9331   002F08  2475               	addwf	_uart_buffer_idx^0,w,c
  9332   002F0A  6ED9               	movwf	fsr2l,c
  9333   002F0C  6ADA               	clrf	fsr2h,c
  9334   002F0E  6ADF               	clrf	indf2,c
  9335   002F10  0012               	return		;funcret
  9336   002F12                     __end_of_UartCopyBufferToString:
  9337                           	callstack 0
  9338                           
  9339 ;; *************** function _UartClearBuffer *****************
  9340 ;; Defined at:
  9341 ;;		line 52 in file "utils/uart.c"
  9342 ;; Parameters:    Size  Location     Type
  9343 ;;		None
  9344 ;; Auto vars:     Size  Location     Type
  9345 ;;		None
  9346 ;; Return value:  Size  Location     Type
  9347 ;;                  1    wreg      void 
  9348 ;; Registers used:
  9349 ;;		wreg, status,2
  9350 ;; Tracked objects:
  9351 ;;		On entry : 0/0
  9352 ;;		On exit  : 0/0
  9353 ;;		Unchanged: 0/0
  9354 ;; Data sizes:     COMRAM   BANK0   BANK1   BANK2   BANK3   BANK4   BANK5
  9355 ;;      Params:         0       0       0       0       0       0       0
  9356 ;;      Locals:         0       0       0       0       0       0       0
  9357 ;;      Temps:          0       0       0       0       0       0       0
  9358 ;;      Totals:         0       0       0       0       0       0       0
  9359 ;;Total ram usage:        0 bytes
  9360 ;; Hardware stack levels used: 1
  9361 ;; Hardware stack levels required when called: 1
  9362 ;; This function calls:
  9363 ;;		Nothing
  9364 ;; This function is called by:
  9365 ;;		_LowIsr
  9366 ;; This function uses a non-reentrant model
  9367 ;;
  9368                           
  9369                           	psect	text36
  9370   003136                     __ptext36:
  9371                           	callstack 0
  9372   003136                     _UartClearBuffer:
  9373                           	callstack 23
  9374   003136                     
  9375                           ;utils/uart.c: 53:     uart_buffer_idx = 0;
  9376   003136  0E00               	movlw	0
  9377   003138  6E76               	movwf	(_uart_buffer_idx+1)^0,c
  9378   00313A  0E00               	movlw	0
  9379   00313C  6E75               	movwf	_uart_buffer_idx^0,c
  9380   00313E                     
  9381                           ;utils/uart.c: 54:     uart_buffer[0] = '\0';
  9382   00313E  0101               	movlb	1	; () banked
  9383   003140  6B00               	clrf	_uart_buffer& (0+255),b
  9384   003142                     
  9385                           ; BSR set to: 1
  9386   003142  0012               	return		;funcret
  9387   003144                     __end_of_UartClearBuffer:
  9388                           	callstack 0
  9389                           
  9390 ;; *************** function _HighIsr *****************
  9391 ;; Defined at:
  9392 ;;		line 69 in file "main.c"
  9393 ;; Parameters:    Size  Location     Type
  9394 ;;		None
  9395 ;; Auto vars:     Size  Location     Type
  9396 ;;		None
  9397 ;; Return value:  Size  Location     Type
  9398 ;;                  1    wreg      void 
  9399 ;; Registers used:
  9400 ;;		None
  9401 ;; Tracked objects:
  9402 ;;		On entry : 0/0
  9403 ;;		On exit  : 0/0
  9404 ;;		Unchanged: 0/0
  9405 ;; Data sizes:     COMRAM   BANK0   BANK1   BANK2   BANK3   BANK4   BANK5
  9406 ;;      Params:         0       0       0       0       0       0       0
  9407 ;;      Locals:         0       0       0       0       0       0       0
  9408 ;;      Temps:          0       0       0       0       0       0       0
  9409 ;;      Totals:         0       0       0       0       0       0       0
  9410 ;;Total ram usage:        0 bytes
  9411 ;; Hardware stack levels used: 1
  9412 ;; This function calls:
  9413 ;;		Nothing
  9414 ;; This function is called by:
  9415 ;;		Interrupt level 2
  9416 ;; This function uses a non-reentrant model
  9417 ;;
  9418                           
  9419                           	psect	intcode
  9420   000008                     __pintcode:
  9421                           	callstack 0
  9422   000008                     _HighIsr:
  9423                           	callstack 22
  9424                           
  9425                           ; BSR set to: 1
  9426                           ;incstack = 0
  9427   000008  8279               	bsf	int$flags,1,c	;set compiler interrupt flag (level 2)
  9428   00000A  ED1C  F018         	call	int_func,f	;refresh shadow registers
  9429                           
  9430                           	psect	intcode_body
  9431   003038                     __pintcode_body:
  9432                           	callstack 22
  9433   003038                     int_func:
  9434                           	callstack 22
  9435   003038  0006               	pop		; remove dummy address from shadow register refresh
  9436   00303A                     
  9437                           ;main.c: 70:     if((INTCONbits.INT0IE && INTCONbits.INT0IF)){
  9438   00303A  A8F2               	btfss	242,4,c	;volatile
  9439   00303C  EF22  F018         	goto	i2u244_41
  9440   003040  EF24  F018         	goto	i2u244_40
  9441   003044                     i2u244_41:
  9442   003044  EF2C  F018         	goto	i2l307
  9443   003048                     i2u244_40:
  9444   003048  A2F2               	btfss	242,1,c	;volatile
  9445   00304A  EF29  F018         	goto	i2u245_41
  9446   00304E  EF2B  F018         	goto	i2u245_40
  9447   003052                     i2u245_41:
  9448   003052  EF2C  F018         	goto	i2l307
  9449   003056                     i2u245_40:
  9450   003056                     
  9451                           ;main.c: 71:         INTCONbits.INT0IF = 0;
  9452   003056  92F2               	bcf	242,1,c	;volatile
  9453   003058                     i2l307:
  9454                           
  9455                           ;main.c: 73:     if((PIR1bits.TMR2IF && PIE1bits.TMR2IE)){
  9456   003058  A29E               	btfss	158,1,c	;volatile
  9457   00305A  EF31  F018         	goto	i2u246_41
  9458   00305E  EF33  F018         	goto	i2u246_40
  9459   003062                     i2u246_41:
  9460   003062  EF3B  F018         	goto	i2l309
  9461   003066                     i2u246_40:
  9462   003066  A29D               	btfss	157,1,c	;volatile
  9463   003068  EF38  F018         	goto	i2u247_41
  9464   00306C  EF3A  F018         	goto	i2u247_40
  9465   003070                     i2u247_41:
  9466   003070  EF3B  F018         	goto	i2l309
  9467   003074                     i2u247_40:
  9468   003074                     
  9469                           ;main.c: 74:         PIR1bits.TMR2IF = 0;
  9470   003074  929E               	bcf	158,1,c	;volatile
  9471   003076                     i2l309:
  9472   003076  9279               	bcf	int$flags,1,c	;clear compiler interrupt flag (level 2)
  9473   003078  0011               	retfie		f
  9474   00307A                     __end_of_HighIsr:
  9475                           	callstack 0
  9476                           
  9477                           	psect	rparam
  9478   000001                     ___rparam_used  equ	1
  9479   000000                     ___param_bank   equ	0
  9480   000000                     __Lparam        equ	__Lrparam
  9481   000000                     __Hparam        equ	__Hrparam
  9482                           
  9483                           	psect	temp
  9484   000079                     btemp:
  9485                           	callstack 0
  9486   000079                     	ds	1
  9487   000079                     int$flags       set	btemp
  9488   00007A                     wtemp8          set	btemp+1
  9489   00007A                     ttemp5          set	btemp+1
  9490   00007D                     ttemp6          set	btemp+4
  9491   000081                     ttemp7          set	btemp+8
  9492                           
  9493                           	psect	config
  9494                           
  9495                           ; Padding undefined space
  9496   300000                     	org	3145728
  9497   300000  FF                 	db	255
  9498                           
  9499                           ;Config register CONFIG1H @ 0x300001
  9500                           ;	Oscillator Selection bits
  9501                           ;	OSC = INTIO67, Internal oscillator block, port function on RA6 and RA7
  9502                           ;	Fail-Safe Clock Monitor Enable bit
  9503                           ;	FCMEN = OFF, Fail-Safe Clock Monitor disabled
  9504                           ;	Internal/External Oscillator Switchover bit
  9505                           ;	IESO = ON, Oscillator Switchover mode enabled
  9506   300001                     	org	3145729
  9507   300001  88                 	db	136
  9508                           
  9509                           ;Config register CONFIG2L @ 0x300002
  9510                           ;	Power-up Timer Enable bit
  9511                           ;	PWRT = OFF, PWRT disabled
  9512                           ;	Brown-out Reset Enable bits
  9513                           ;	BOREN = SBORDIS, Brown-out Reset enabled in hardware only (SBOREN is disabled)
  9514                           ;	Brown Out Reset Voltage bits
  9515                           ;	BORV = 3, Minimum setting
  9516   300002                     	org	3145730
  9517   300002  1F                 	db	31
  9518                           
  9519                           ;Config register CONFIG2H @ 0x300003
  9520                           ;	Watchdog Timer Enable bit
  9521                           ;	WDT = OFF, WDT disabled (control is placed on the SWDTEN bit)
  9522                           ;	Watchdog Timer Postscale Select bits
  9523                           ;	WDTPS = 1, 1:1
  9524   300003                     	org	3145731
  9525   300003  00                 	db	0
  9526                           
  9527                           ; Padding undefined space
  9528   300004                     	org	3145732
  9529   300004  FF                 	db	255
  9530                           
  9531                           ;Config register CONFIG3H @ 0x300005
  9532                           ;	CCP2 MUX bit
  9533                           ;	CCP2MX = PORTC, CCP2 input/output is multiplexed with RC1
  9534                           ;	PORTB A/D Enable bit
  9535                           ;	PBADEN = ON, PORTB<4:0> pins are configured as analog input channels on Reset
  9536                           ;	Low-Power Timer1 Oscillator Enable bit
  9537                           ;	LPT1OSC = OFF, Timer1 configured for higher power operation
  9538                           ;	MCLR Pin Enable bit
  9539                           ;	MCLRE = ON, MCLR pin enabled; RE3 input pin disabled
  9540   300005                     	org	3145733
  9541   300005  83                 	db	131
  9542                           
  9543                           ;Config register CONFIG4L @ 0x300006
  9544                           ;	Stack Full/Underflow Reset Enable bit
  9545                           ;	STVREN = ON, Stack full/underflow will cause Reset
  9546                           ;	Single-Supply ICSP Enable bit
  9547                           ;	LVP = OFF, Single-Supply ICSP disabled
  9548                           ;	Extended Instruction Set Enable bit
  9549                           ;	XINST = OFF, Instruction set extension and Indexed Addressing mode disabled (Legacy mo
      +                          de)
  9550                           ;	Background Debugger Enable bit
  9551                           ;	DEBUG = 0x1, unprogrammed default
  9552   300006                     	org	3145734
  9553   300006  81                 	db	129
  9554                           
  9555                           ; Padding undefined space
  9556   300007                     	org	3145735
  9557   300007  FF                 	db	255
  9558                           
  9559                           ;Config register CONFIG5L @ 0x300008
  9560                           ;	Code Protection bit
  9561                           ;	CP0 = OFF, Block 0 (000800-001FFFh) not code-protected
  9562                           ;	Code Protection bit
  9563                           ;	CP1 = OFF, Block 1 (002000-003FFFh) not code-protected
  9564                           ;	Code Protection bit
  9565                           ;	CP2 = OFF, Block 2 (004000-005FFFh) not code-protected
  9566                           ;	Code Protection bit
  9567                           ;	CP3 = OFF, Block 3 (006000-007FFFh) not code-protected
  9568   300008                     	org	3145736
  9569   300008  0F                 	db	15
  9570                           
  9571                           ;Config register CONFIG5H @ 0x300009
  9572                           ;	Boot Block Code Protection bit
  9573                           ;	CPB = OFF, Boot block (000000-0007FFh) not code-protected
  9574                           ;	Data EEPROM Code Protection bit
  9575                           ;	CPD = OFF, Data EEPROM not code-protected
  9576   300009                     	org	3145737
  9577   300009  C0                 	db	192
  9578                           
  9579                           ;Config register CONFIG6L @ 0x30000A
  9580                           ;	Write Protection bit
  9581                           ;	WRT0 = OFF, Block 0 (000800-001FFFh) not write-protected
  9582                           ;	Write Protection bit
  9583                           ;	WRT1 = OFF, Block 1 (002000-003FFFh) not write-protected
  9584                           ;	Write Protection bit
  9585                           ;	WRT2 = OFF, Block 2 (004000-005FFFh) not write-protected
  9586                           ;	Write Protection bit
  9587                           ;	WRT3 = OFF, Block 3 (006000-007FFFh) not write-protected
  9588   30000A                     	org	3145738
  9589   30000A  0F                 	db	15
  9590                           
  9591                           ;Config register CONFIG6H @ 0x30000B
  9592                           ;	Configuration Register Write Protection bit
  9593                           ;	WRTC = OFF, Configuration registers (300000-3000FFh) not write-protected
  9594                           ;	Boot Block Write Protection bit
  9595                           ;	WRTB = OFF, Boot block (000000-0007FFh) not write-protected
  9596                           ;	Data EEPROM Write Protection bit
  9597                           ;	WRTD = OFF, Data EEPROM not write-protected
  9598   30000B                     	org	3145739
  9599   30000B  E0                 	db	224
  9600                           
  9601                           ;Config register CONFIG7L @ 0x30000C
  9602                           ;	Table Read Protection bit
  9603                           ;	EBTR0 = OFF, Block 0 (000800-001FFFh) not protected from table reads executed in other
      +                           blocks
  9604                           ;	Table Read Protection bit
  9605                           ;	EBTR1 = OFF, Block 1 (002000-003FFFh) not protected from table reads executed in other
      +                           blocks
  9606                           ;	Table Read Protection bit
  9607                           ;	EBTR2 = OFF, Block 2 (004000-005FFFh) not protected from table reads executed in other
      +                           blocks
  9608                           ;	Table Read Protection bit
  9609                           ;	EBTR3 = OFF, Block 3 (006000-007FFFh) not protected from table reads executed in other
      +                           blocks
  9610   30000C                     	org	3145740
  9611   30000C  0F                 	db	15
  9612                           
  9613                           ;Config register CONFIG7H @ 0x30000D
  9614                           ;	Boot Block Table Read Protection bit
  9615                           ;	EBTRB = OFF, Boot block (000000-0007FFh) not protected from table reads executed in ot
      +                          her blocks
  9616   30000D                     	org	3145741
  9617   30000D  40                 	db	64
  9618                           tosu	equ	0xFFF
  9619                           tosh	equ	0xFFE
  9620                           tosl	equ	0xFFD
  9621                           stkptr	equ	0xFFC
  9622                           pclatu	equ	0xFFB
  9623                           pclath	equ	0xFFA
  9624                           pcl	equ	0xFF9
  9625                           tblptru	equ	0xFF8
  9626                           tblptrh	equ	0xFF7
  9627                           tblptrl	equ	0xFF6
  9628                           tablat	equ	0xFF5
  9629                           prodh	equ	0xFF4
  9630                           prodl	equ	0xFF3
  9631                           indf0	equ	0xFEF
  9632                           postinc0	equ	0xFEE
  9633                           postdec0	equ	0xFED
  9634                           preinc0	equ	0xFEC
  9635                           plusw0	equ	0xFEB
  9636                           fsr0h	equ	0xFEA
  9637                           fsr0l	equ	0xFE9
  9638                           wreg	equ	0xFE8
  9639                           indf1	equ	0xFE7
  9640                           postinc1	equ	0xFE6
  9641                           postdec1	equ	0xFE5
  9642                           preinc1	equ	0xFE4
  9643                           plusw1	equ	0xFE3
  9644                           fsr1h	equ	0xFE2
  9645                           fsr1l	equ	0xFE1
  9646                           bsr	equ	0xFE0
  9647                           indf2	equ	0xFDF
  9648                           postinc2	equ	0xFDE
  9649                           postdec2	equ	0xFDD
  9650                           preinc2	equ	0xFDC
  9651                           plusw2	equ	0xFDB
  9652                           fsr2h	equ	0xFDA
  9653                           fsr2l	equ	0xFD9
  9654                           status	equ	0xFD8

Data Sizes:
    Strings     3
    Constant    0
    Data        19
    BSS         504
    Persistent  0
    Stack       0

Auto Spaces:
    Space          Size  Autos    Used
    COMRAM          126    110     120
    BANK0           128     76      97
    BANK1           256     81     213
    BANK2           256      0       0
    BANK3           256      0       0
    BANK4           256      0       0
    BANK5           244      0       0

Pointer List with Targets:

    atoi@s	PTR const unsigned char  size(1) Largest target is 20
		 -> LowIsr@str(BANK0[20]), 

    ComponentInitialize@int_config	PTR struct . size(2) Largest target is 5
		 -> SystemInitialize@int_config(BANK1[5]), 

    f$.$buffer	PTR unsigned char  size(1) Largest target is 10
		 -> UartSendInt@str(COMRAM[10]), 

    f$.$source	PTR const unsigned char  size(2) Largest target is 0

    S1811$buffer	PTR unsigned char  size(1) Largest target is 10
		 -> UartSendInt@str(COMRAM[10]), 

    S1811$source	PTR const unsigned char  size(2) Largest target is 0

    UartCopyBufferToString@str	PTR unsigned char  size(1) Largest target is 20
		 -> LowIsr@str(BANK0[20]), 

    vfprintf$0	PTR struct _IO_FILE size(1) Largest target is 11
		 -> sprintf@f(COMRAM[11]), 

    vfprintf$1	PTR const unsigned char  size(1) Largest target is 3
		 -> STR_1(CODE[3]), 

    vfprintf$2	PTR PTR void  size(1) Largest target is 1
		 -> sprintf@ap(COMRAM[1]), 


Critical Paths under _main in COMRAM

    None.

Critical Paths under _LowIsr in COMRAM

    _LowIsr->i1_PWMSetDutyCycle
    i1___fladd->i1___fldiv
    i1_PWMSetDutyCycle->i1___fltol
    i1___fltol->i1___fldiv
    i1___flmul->i1___xxtofl
    i1___fldiv->i1___flmul
    _UartReceiveChar->_UartSendChar

Critical Paths under _HighIsr in COMRAM

    None.

Critical Paths under _main in BANK0

    _UartInitialize->_RxEnableInterrupt
    _UartInitialize->_TxEnableInterrupt
    _Timer2Initialize->___fladd
    _PWMSetPeriod->___fladd
    ___fltol->___fladd
    ___fldiv->___flmul
    ___fladd->___fldiv
    _AdcInitialize->_AdcEnableInterrupt

Critical Paths under _LowIsr in BANK0

    None.

Critical Paths under _HighIsr in BANK0

    None.

Critical Paths under _main in BANK1

    _main->_SystemInitialize
    _SystemInitialize->_ComponentInitialize
    _PWMSetDutyCycle->___fltol
    _ComponentInitialize->_PWMInitialize
    _PWMInitialize->_Timer2Initialize
    _Timer2Initialize->___fltol
    _PWMSetPeriod->___fltol
    ___fltol->___fladd
    ___fladd->___fldiv

Critical Paths under _LowIsr in BANK1

    None.

Critical Paths under _HighIsr in BANK1

    None.

Critical Paths under _main in BANK2

    None.

Critical Paths under _LowIsr in BANK2

    None.

Critical Paths under _HighIsr in BANK2

    None.

Critical Paths under _main in BANK3

    None.

Critical Paths under _LowIsr in BANK3

    None.

Critical Paths under _HighIsr in BANK3

    None.

Critical Paths under _main in BANK4

    None.

Critical Paths under _LowIsr in BANK4

    None.

Critical Paths under _HighIsr in BANK4

    None.

Critical Paths under _main in BANK5

    None.

Critical Paths under _LowIsr in BANK5

    None.

Critical Paths under _HighIsr in BANK5

    None.

Call Graph Tables:

 ---------------------------------------------------------------------------------
 (Depth) Function   	        Calls       Base Space   Used Autos Params    Refs
 ---------------------------------------------------------------------------------
 (0) _main                                                 0     0      0   26433
                   _SystemInitialize
 ---------------------------------------------------------------------------------
 (1) _SystemInitialize                                    13    13      0   26433
                                             68 BANK1     13    13      0
                _ComponentInitialize
               _OscillatorInitialize
                    _PWMSetDutyCycle
 ---------------------------------------------------------------------------------
 (2) _PWMSetDutyCycle                                     27    23      4    3957
                                             31 BANK1     27    23      4
                 _Timer2GetPrescaler
                            ___fldiv
                            ___flmul
                            ___fltol
                           ___xxtofl
 ---------------------------------------------------------------------------------
 (2) _OscillatorInitialize                                 0     0      0       0
 ---------------------------------------------------------------------------------
 (2) _ComponentInitialize                                 20    10     10   22393
                                             48 BANK1     20    10     10
                      _AdcInitialize
                   _ButtonInitialize
                _InterruptInitialize
                      _LedInitialize
                      _PWMInitialize
                   _Timer2Initialize
                     _UartInitialize
                           ___xxtofl
 ---------------------------------------------------------------------------------
 (3) _UartInitialize                                       2     1      1     162
                                             32 BANK0      2     1      1
                  _RxEnableInterrupt
                        _SetBaudRate
                  _TxEnableInterrupt
 ---------------------------------------------------------------------------------
 (4) _TxEnableInterrupt                                    1     1      0      29
                                             31 BANK0      1     1      0
 ---------------------------------------------------------------------------------
 (4) _SetBaudRate                                          0     0      0       0
 ---------------------------------------------------------------------------------
 (4) _RxEnableInterrupt                                    1     1      0      29
                                             31 BANK0      1     1      0
 ---------------------------------------------------------------------------------
 (3) _PWMInitialize                                        4     0      4   13855
                                             44 BANK1      4     0      4
                       _PWMSetPeriod
                   _Timer2Initialize
 ---------------------------------------------------------------------------------
 (3) _Timer2Initialize                                    13     5      8    6988
                                             31 BANK1     13     5      8
                            ___fladd
                            ___fldiv
                            ___flmul
                            ___fltol
                           ___xxtofl
 ---------------------------------------------------------------------------------
 (4) _PWMSetPeriod                                         8     4      4    6833
                                             31 BANK1      8     4      4
                 _Timer2GetPrescaler
                            ___fladd
                            ___fldiv
                            ___flmul
                            ___fltol
                           ___xxtofl
 ---------------------------------------------------------------------------------
 (3) ___xxtofl                                            14    10      4     345
                                             31 BANK0     14    10      4
 ---------------------------------------------------------------------------------
 (3) ___fltol                                             10     6      4     233
                                             21 BANK1     10     6      4
                            ___fladd (ARG)
                            ___fldiv (ARG)
                            ___flmul (ARG)
                           ___xxtofl (ARG)
 ---------------------------------------------------------------------------------
 (3) ___flmul                                             25    17      8    1478
                                             31 BANK0     25    17      8
 ---------------------------------------------------------------------------------
 (3) ___fldiv                                             25    17      8    1725
                                             56 BANK0     12     4      8
                                              0 BANK1     13    13      0
                            ___flmul (ARG)
                           ___xxtofl (ARG)
 ---------------------------------------------------------------------------------
 (4) ___fladd                                             16     8      8    2984
                                             68 BANK0      8     0      8
                                             13 BANK1      8     8      0
                            ___fldiv (ARG)
                            ___flmul (ARG)
                           ___xxtofl (ARG)
 ---------------------------------------------------------------------------------
 (3) _Timer2GetPrescaler                                   2     0      2       0
                                             31 BANK0      2     0      2
 ---------------------------------------------------------------------------------
 (3) _LedInitialize                                        0     0      0       0
 ---------------------------------------------------------------------------------
 (3) _InterruptInitialize                                  0     0      0       0
 ---------------------------------------------------------------------------------
 (3) _ButtonInitialize                                     2     0      2      24
                                             31 BANK0      2     0      2
 ---------------------------------------------------------------------------------
 (3) _AdcInitialize                                        1     1      0      87
                                             32 BANK0      1     1      0
                 _AdcEnableInterrupt
 ---------------------------------------------------------------------------------
 (4) _AdcEnableInterrupt                                   1     1      0      29
                                             31 BANK0      1     1      0
 ---------------------------------------------------------------------------------
 Estimated maximum stack depth 4
 ---------------------------------------------------------------------------------
 (Depth) Function   	        Calls       Base Space   Used Autos Params    Refs
 ---------------------------------------------------------------------------------
 (6) _LowIsr                                              40    40      0    8787
                                            101 COMRAM     9     9      0
                                              0 BANK0     31    31      0
                    _UartClearBuffer
             _UartCopyBufferToString
                        _UartGetChar
                    _UartReceiveChar
                               _atoi
                  i1_PWMSetDutyCycle
                          i1___fladd
                          i1___fldiv
                          i1___flmul
                         i1___xxtofl
 ---------------------------------------------------------------------------------
 (7) i1___fladd                                           16     8      8    1986
                                             64 COMRAM    16     8      8
                          i1___fldiv (ARG)
                          i1___flmul (ARG)
                         i1___xxtofl (ARG)
 ---------------------------------------------------------------------------------
 (7) i1_PWMSetDutyCycle                                   27    23      4    3281
                                             74 COMRAM    27    23      4
               i1_Timer2GetPrescaler
                          i1___fldiv
                          i1___flmul
                          i1___fltol
                         i1___xxtofl
 ---------------------------------------------------------------------------------
 (7) i1___xxtofl                                          14    10      4     339
                                              0 COMRAM    14    10      4
 ---------------------------------------------------------------------------------
 (8) i1___fltol                                           10     6      4     230
                                             64 COMRAM    10     6      4
                          i1___fldiv (ARG)
                         i1___xxtofl (ARG)
 ---------------------------------------------------------------------------------
 (7) i1___flmul                                           25    17      8    1470
                                             14 COMRAM    25    17      8
                         i1___xxtofl (ARG)
 ---------------------------------------------------------------------------------
 (7) i1___fldiv                                           25    17      8    1127
                                             39 COMRAM    25    17      8
                          i1___flmul (ARG)
                         i1___xxtofl (ARG)
 ---------------------------------------------------------------------------------
 (8) i1_Timer2GetPrescaler                                 2     0      2       0
                                              0 COMRAM     2     0      2
 ---------------------------------------------------------------------------------
 (7) _atoi                                                 8     6      2     229
                                              0 COMRAM     8     6      2
 ---------------------------------------------------------------------------------
 (7) _UartReceiveChar                                      1     1      0      96
                                              1 COMRAM     1     1      0
                       _UartSendChar
 ---------------------------------------------------------------------------------
 (8) _UartSendChar                                         1     1      0      29
                                              0 COMRAM     1     1      0
 ---------------------------------------------------------------------------------
 (7) _UartGetChar                                          0     0      0       0
 ---------------------------------------------------------------------------------
 (7) _UartCopyBufferToString                               4     3      1     113
                                              0 COMRAM     4     3      1
 ---------------------------------------------------------------------------------
 (7) _UartClearBuffer                                      0     0      0       0
 ---------------------------------------------------------------------------------
 Estimated maximum stack depth 8
 ---------------------------------------------------------------------------------
 (Depth) Function   	        Calls       Base Space   Used Autos Params    Refs
 ---------------------------------------------------------------------------------
 (9) _HighIsr                                              0     0      0       0
 ---------------------------------------------------------------------------------
 Estimated maximum stack depth 9
 ---------------------------------------------------------------------------------

 Call Graph Graphs:

 _main (ROOT)
   _SystemInitialize
     _ComponentInitialize
       _AdcInitialize
         _AdcEnableInterrupt
       _ButtonInitialize
       _InterruptInitialize
       _LedInitialize
       _PWMInitialize
         _PWMSetPeriod
           _Timer2GetPrescaler
           ___fladd
             ___fldiv (ARG)
               ___flmul (ARG)
               ___xxtofl (ARG)
             ___flmul (ARG)
             ___xxtofl (ARG)
           ___fldiv
           ___flmul
           ___fltol
             ___fladd (ARG)
             ___fldiv (ARG)
             ___flmul (ARG)
             ___xxtofl (ARG)
           ___xxtofl
         _Timer2Initialize
           ___fladd
           ___fldiv
           ___flmul
           ___fltol
           ___xxtofl
       _Timer2Initialize
       _UartInitialize
         _RxEnableInterrupt
         _SetBaudRate
         _TxEnableInterrupt
       ___xxtofl
     _OscillatorInitialize
     _PWMSetDutyCycle
       _Timer2GetPrescaler
       ___fldiv
       ___flmul
       ___fltol
       ___xxtofl

 _LowIsr (ROOT)
   _UartClearBuffer
   _UartCopyBufferToString
   _UartGetChar
   _UartReceiveChar
     _UartSendChar
   _atoi
   i1_PWMSetDutyCycle
     i1_Timer2GetPrescaler
     i1___fldiv
       i1___flmul (ARG)
         i1___xxtofl (ARG)
       i1___xxtofl (ARG)
     i1___flmul
     i1___fltol
       i1___fldiv (ARG)
       i1___xxtofl (ARG)
     i1___xxtofl
   i1___fladd
     i1___fldiv (ARG)
     i1___flmul (ARG)
     i1___xxtofl (ARG)
   i1___fldiv
   i1___flmul
   i1___xxtofl

 _HighIsr (ROOT)

Address spaces:
Name               Size   Autos  Total    Usage
BIGRAM            1523      0     360     23.6%
BITBANK4           256      0       0      0.0%
BANK4              256      0       0      0.0%
BITBANK3           256      0       0      0.0%
BANK3              256      0       0      0.0%
BITBANK2           256      0       0      0.0%
BANK2              256      0       0      0.0%
BITBANK1           256      0       0      0.0%
BANK1              256     81     213     83.2%
BITBANK5           244      0       0      0.0%
BANK5              244      0       0      0.0%
BITBANK0           128      0       0      0.0%
BANK0              128     76      97     75.8%
BITCOMRAM          126      0       0      0.0%
COMRAM             126    110     120     95.2%
BITBIGSFR_1h        38      0       0      0.0%
BITBIGSFR_1llh      12      0       0      0.0%
BITBIGSFR_5h        10      0       0      0.0%
BITBIGSFRlh         10      0       0      0.0%
BITBIGSFRll          9      0       0      0.0%
BITBIGSFRh           7      0       0      0.0%
BITBIGSFR_2          6      0       0      0.0%
BITBIGSFR_4          3      0       0      0.0%
BITBIGSFR_3          3      0       0      0.0%
BITBIGSFR_5l         2      0       0      0.0%
BITBIGSFR_1lh        1      0       0      0.0%
STACK                0      0       0      0.0%
DATA                 0      0     795      0.0%


Microchip Technology PIC18 Macro Assembler V2.50 build 20240725155939 
Symbol Table                                                                                   Sun Jan 12 12:59:44 2025

                       ___fldiv@aexp 018C                         ___fldiv@bexp 018B  
                        i1___fladd@a 0045                          i1___fladd@b 0041  
                       ___fldiv@sign 0184                  ??i1_PWMSetDutyCycle 004F  
                        i1___fldiv@a 002C                          i1___fldiv@b 0028  
                                 l20 3036                                   l23 30D6  
                                 l51 2DD0                                   l54 273C  
                                 l47 2FDA                                   l48 2FEE  
                                 l92 30C0                                   l88 317E  
                                 l99 3124                          i1___flmul@a 0013  
                        i1___flmul@b 000F                                   bsr 0FE0  
               ?_ComponentInitialize 01B0                           i1___xxtofl 241C  
                                l201 3114                                  l140 3176  
                                l300 3148                                  l206 2F5C  
                                l137 2262                                  l164 3164  
                                l158 29EE                                  l195 315A  
                                l198 3100                                  l294 2EBE  
                                l617 2C02                                  l299 3148  
                                l902 1C80                                  l904 1AB2  
                                l913 1AFC                                  l850 07D0  
                                l914 1B1E                                  l915 1B88  
                                l907 1A54                                  l916 1B76  
                                l941 12CC                                  l862 0A16  
                                l942 12EA                                  l934 10D6  
                                l951 13F8                                  l943 1342  
                                l848 0824                                  l944 1330  
                                l881 0B10                                  l865 097A  
                                l857 0B58                                  l849 0812  
                                l874 0A5C                                  l938 1436  
                                l875 0A48                                  l982 2356  
                                l975 22BE                                  l978 241A  
      ComponentInitialize@int_config 01B0                                  l989 23B2  
                                _PR2 0FCB                         i1___fltol@f1 0041  
                                wreg 0FE8                        i1___fladd@grs 0050  
                       ___flmul@aexp 00B0                         ___flmul@bexp 00B1  
                       _PWMDutyCycle 006F                         ___flmul@sign 00AB  
                       ___flmul@temp 00B6                         ___flmul@prod 00B2  
                      i1___fldiv@grs 003B                        i1___fldiv@rem 0034  
              ?_OscillatorInitialize 0001                         ___fltol@exp1 019E  
                               l3010 2340                                 l3002 22F8  
                               l3100 30A2                                 l3020 23C0  
                               l3012 234C                                 l3004 2300  
                               l3102 30A6                                 l3110 311E  
                               l3030 2408                                 l3022 23C2  
                               l3014 2388                                 l3006 230C  
                               l3104 30A8                                 l4000 073A  
                               l3032 240A                                 l3024 23C6  
                               l3016 2394                                 l3008 233E  
                               l3120 2F22                                 l3112 2F16  
                               l3106 30BC                                 l4010 074E  
                               l4002 073E                                 l3026 23EA  
                               l3018 23A2                                 l3130 2F42  
                               l3122 2F24                                 l3114 2F1A  
                               l3036 30C6                                 l3108 3116  
                               l4100 0A04                                 l4020 0762  
                               l4012 0752                                 l4004 0742  
                               l3028 23FA                                 l3132 2F56  
                               l3124 2F26                                 l3116 2F1E  
                               l3038 30CA                                 l4110 0A6E  
                               l4102 0A06                                 l4030 07C8  
                               l4022 0766                                 l4014 0756  
                               l4006 0746                                 l3070 3106  
                               l3062 3150                                 l3126 2F28  
                               l3118 2F20                                 l3080 3014  
                               l4120 0ADA                                 l4112 0A7C  
                               l4104 0A28                                 l4040 0802  
                               l4032 07DE                                 l4016 075A  
                               l4008 074A                                 l4024 076A  
                               l4200 19E0                                 l3072 3112  
                               l3064 3156                                 l3128 2F3C  
                               l3082 3028                                 l3074 2FF4  
                               l4130 0B2A                                 l4122 0AEA  
                               l4114 0A8A                                 l4106 0A3E  
                               l4050 085A                                 l4042 080E  
                               l4034 07EA                                 l4026 0796  
                               l4018 075E                                 l4210 1A2A  
                               l4202 19F0                                 l3066 30F2  
                               l3084 302E                                 l3076 2FFA  
                               l4132 0B34                                 l4124 0B0E  
                               l4116 0AC6                                 l4060 089A  
                               l4052 086C                                 l4044 0834  
                               l4036 07EE                                 l4028 07B6  
                               l4220 1A90                                 l4212 1A40  
                               l4204 1A02                                 l4140 185E  
                               l4300 2FAA                                 l3068 30FE  
                               l3086 3032                                 l3078 3002  
                               l4134 0B44                                 l4126 0B1E  
                               l4118 0AC8                                 l4070 08F0  
                               l4062 08AA                                 l4054 087A  
                               l4046 0844                                 l4038 07FE  
                               l4230 1AE8                                 l4222 1AB0  
                               l4214 1A50                                 l4206 1A14  
                               l4150 18A8                                 l4142 1872  
                               l4310 25EC                                 l3088 3034  
                               l4136 0B48                                 l4128 0B26  
                               l4080 0992                                 l4072 0944  
                               l4064 08AE                                 l4056 088A  
                               l4232 1AF8                                 l4224 1AC2  
                               l4216 1A60                                 l4208 1A1A  
                               l4160 18DE                                 l4152 18BA  
                               l4144 1882                                 l4304 2FB2  
                               l4320 202A                                 l4312 2646  
                               l4400 2E86                                 l3098 3178  
                               l4090 09D4                                 l4082 09A4  
                               l4074 0946                                 l4066 08BA  
                               l4058 0896                                 l4242 1B9A  
                               l4250 1BE6                                 l4226 1AD8  
                               l4234 1B0E                                 l4218 1A8E  
                               l4170 191E                                 l4162 18E8  
                               l4154 18BE                                 l4146 1886  
                               l4330 2064                                 l4322 202E  
                               l4314 26DC                                 l4306 25D0  
                               l4402 2EA8                                 l4092 09D8  
                               l4076 0956                                 l4068 08C2  
                               l4260 1C54                                 l4252 1C02  
                               l4244 1BA8                                 l4236 1B30  
                               l4228 1ADE                                 l4180 1962  
                               l4172 1930                                 l4164 18F8  
                               l4148 1898                                 l4156 18C4  
                               l2900 12B2                                 l2820 101E  
                               l4340 20DC                                 l4332 207E  
                               l4324 203E                                 l4316 2728  
                               l4308 25E0                                 l2486 315C  
                               l4094 09E8                                 l4086 09BA  
                               l4078 0968                                 l4262 1C58  
                               l4254 1C1A                                 l4246 1BB6  
                               l4238 1B6C                                 l4182 1972  
                               l4190 1996                                 l4174 1934  
                               l4166 18FC                                 l4158 18D6  
                               l2910 1328                                 l2902 12BC  
                               l2830 105E                                 l2822 102C  
                               l4350 212E                                 l4342 20F0  
                               l4334 2090                                 l4326 2042  
                               l4318 2016                                 l3198 3170  
                               l4096 09F0                                 l4088 09C4  
                               l4264 1C66                                 l4256 1C36  
                               l4248 1BE0                                 l4192 19A8  
                               l4184 197A                                 l4168 190E  
                               l4176 193A                                 l2920 1396  
                               l2904 12CA                                 l2840 108E  
                               l2832 1064                                 l2824 102E  
                               l4280 28CE                                 l4360 21E4  
                               l4352 213E                                 l4344 2100  
                               l4328 2052                                 l4336 209E  
                               l4416 3144                                 l4098 09F4  
                               l4266 1C6E                                 l4258 1C50  
                               l4194 19A8                                 l4186 1982  
                               l4178 194C                                 l2930 13F2  
                               l2914 1352                                 l2922 139A  
                               l2906 12DC                                 l2850 10C6  
                               l2842 1090                                 l2834 1074  
                               l2826 103E                                 l2818 1010  
                               l4290 2918                                 l4282 28DA  
                               l4354 2150                                 l4362 220A  
                               l4346 2112                                 l4338 20AE  
                               l4268 1C72                                 l2932 13FC  
                               l2940 1422                                 l2924 13B4  
                               l2916 135E                                 l2908 12FA  
                               l2860 1116                                 l2852 10E6  
                               l2844 10A0                                 l2836 107A  
                               l2828 104E                                 l4292 29EC  
                               l4284 28E2                                 l4276 28A8  
                               l4364 221A                                 l4356 217E  
                               l4348 2128                                 l4198 19BE  
                               l2942 1426                                 l2934 140C  
                               l2926 13C8                                 l2918 136C  
                               l2870 1166                                 l2862 1120  
                               l2854 10F6                                 l2846 10B0  
                               l2838 1080                                 l4294 2D0A  
                               l4286 28FA                                 l4278 28B8  
                               l4366 222C                                 l4358 21B6  
          __end_ofi1_PWMSetDutyCycle 28A4                                 l2936 141A  
                               l2928 13E2                                 l2880 11A8  
                               l2872 1172                                 l2864 1136  
                               l2848 10C0                                 l2960 2B68  
                               l2952 2B28                                 l4296 2D16  
                               l4288 290C                                 l4368 2256  
                               l2938 141C                                 l2890 120A  
                               l2882 11B8                                 l2874 1180  
                               l2866 1142                                 l2858 110A  
                               l2970 2B98                                 l2962 2B76  
                               l2954 2B52                                 l2946 2AFC  
                               l4298 2FA8                                 l2892 1226  
                               l2884 11D2                                 l2876 118C  
                               l2868 115A                                 l2980 2BC2  
                               l2972 2BA2                                 l2956 2B54  
                               l2948 2B14                                 l4396 2E5E  
                               l3950 062A                                 l2894 1250  
                               l2886 11E2                                 l2878 119C  
                               l2982 2BD2                                 l2958 2B64  
                               l2990 2268                                 l4398 2E82  
                               l3960 0666                                 l3952 062E  
                               l2896 1286                                 l2888 11FE  
                               l2984 2BE2                                 l2968 2B8E  
                               l2992 227A                                 l3970 069A  
                               l3954 0640                                 l3962 066C  
                               l3946 0606                                 l2898 1294  
                               l2986 2BF2                                 l2978 2BB6  
                               l2994 2288                                 l3980 06DA  
                               l3972 06A4                                 l3964 067E  
                               l3956 0650                                 l3948 061A  
                               l2996 22CE                                 l3990 071C  
                               l3982 06EC                                 l3974 06B4  
                               l3966 0686                                 l3958 0662  
                               l2998 22E4                                 l3992 072A  
                               l3984 06F0                                 l3976 06B8  
                               l3968 0698                                 l3994 072E  
                               l3978 06CA                                 l3986 06F6  
                               l3996 0732                                 l3988 0708  
                               l3998 0736                                 STR_1 0601  
                               _LATA 0F89                                 u3200 10F6  
                               u3201 10F2                                 u3210 1270  
                               u3130 102C                                 u3131 1028  
                               u3300 13E2                                 u3220 12CA  
                               u3140 103E                                 u3301 13DE  
                               u3221 12C6                                 u3141 103A  
                               u3310 141A                                 u3230 12EA  
                               u3150 104E                                 u3311 1416  
                               u3231 12E6                                 u3215 1266  
                               u3151 104A                                 u5000 0650  
                               u3240 12FA                                 u3160 108E  
                               u3320 2B14                                 u3400 2288  
                               u5001 064C                                 u3241 12F6  
                               u3161 108A                                 u3321 2B10  
                               u3401 2284                                 u5010 0698  
                               u3250 1328                                 u3170 10A0  
                               u3330 2B48                                 u3410 22E4  
                               u5011 0694                                 u3251 1324  
                               u3171 109C                                 u3411 22E0  
                               u5100 07DE                                 u5020 06B4  
                               u3260 133E                                 u3180 10B0  
                               u3340 2B76                                 u3420 233A  
                               u5101 07DA                                 u5021 06B0  
                               u3261 133A                                 u3181 10AC  
                               u3341 2B72                                 u3421 2336  
                               u5110 07FE                                 u5030 06CA  
                               u3270 1352                                 u3190 10E6  
                               u3350 2B8A                                 u3430 2384  
                               u5111 07FA                                 u5031 06C6  
                               u3271 134E                                 u3191 10E2  
                               u3351 2B86                                 u3335 2B3E  
                               u3431 2380                                 u5200 0992  
                               u5120 0824                                 u5040 06DA  
                               u3280 136C                                 u3360 2BB2  
                               u3440 23A2                                 u5201 098E  
                               u5121 0820                                 u5041 06D6  
                               u3281 1368                                 u3361 2BAE  
                               u3441 239E                                 u5210 09A4  
                               u5130 0834                                 u5050 071C  
                               u3290 13B4                                 u3370 2BD2  
                               u3450 23B2                                 u5211 09A0  
                               u5131 0830                                 u5051 0718  
                               u3291 13B0                                 u3371 2BCE  
                               u3451 23AE                                 u5300 0A8A  
                               u5220 09D4                                 u5140 0844  
                               u5060 072A                                 u3380 2BE2  
                               u3460 23C0                                 u5301 0A86  
                               u5221 09D0                                 u5141 0840  
                               u5061 0726                                 u3381 2BDE  
                               u3461 23BC                                 u3550 3028  
                               u5310 0AC6                                 u5230 09E8  
                               u5150 087A                                 u5070 0796  
                               u3470 23FA                                 u3390 227A  
                               u3551 3024                                 u5311 0AC2  
                               u5231 09E4                                 u5151 0876  
                               u5071 0792                                 u3471 23F6  
                               u3391 2276                                 u3535 30FC  
                               u3560 30BC                                 u5320 0ADA  
                               u5240 0A04                                 u5160 088A  
                               u5080 07B0                                 u5400 18F8  
                               u3480 2408                                 u3536 30FE  
                               u3561 30B8                                 u5321 0AD6  
                               u5241 0A00                                 u5161 0886  
                               u5081 07AA                                 u5401 18F4  
                               u3481 2404                                 u3545 3110  
                               u5330 0AEA                                 u5250 0A16  
                               u5170 08AA                                 u5090 07B2  
                               u5410 190E                                 u3546 3112  
                               u3570 2F3C                                 u5331 0AE6  
                               u5251 0A12                                 u5171 08A6  
                               u5411 190A                                 u3571 2F38  
                               u5340 0B0E                                 u5260 0A28  
                               u5180 08F0                                 u5500 1AF8  
                               u5420 191E                                 u3580 2F56  
                               u5341 0B0A                                 u5261 0A24  
                               u5181 08EC                                 u5501 1AF4  
                               u5421 191A                                 u3581 2F52  
                               u5350 0B1E                                 u5270 0A3E  
                               u5190 0956                                 u5510 1B1E  
                               u5430 1962                                 u3495 30D4  
                               u5351 0B1A                                 u5271 0A3A  
                               u5191 0952                                 u5511 1B1A  
                               u5431 195E                                 u3496 30D6  
                               u5360 0B44                                 u5280 0A58  
                               u5520 1B30                                 u5440 19A8  
                               u5600 28CE                                 u5361 0B40  
                               u5281 0A54                                 u5521 1B2C  
                               u5441 19A4                                 u5601 28CA  
                               u5290 0A6E                                 u5530 1B6C  
                               u5450 1A2A                                 u5370 1882  
                               u5610 290C                                 u5291 0A6A  
                               u5531 1B68                                 u5451 1A26  
                               u5371 187E                                 u5611 2908  
                               u5540 1B84                                 u5460 1A50  
                               u5380 1898                                 u5700 2100  
                               _RCIF 7CF5                                 u5541 1B80  
                               u5461 1A4C                                 u5381 1894  
                               u5701 20FC                                 i1l54 28A2  
                               u5550 1B9A                                 u5470 1A8E  
                               u5390 18A8                                 u5710 2112  
                               u5551 1B96                                 u5471 1A8A  
                               u5391 18A4                                 u5711 210E  
                               u5560 1BB6                                 u5480 1AC2  
                               u5720 213E                                 u5640 202A  
                               u5561 1BB2                                 u5481 1ABE  
                               u5625 2916                                 u5721 213A  
                               u5641 2026                                 u5570 1C02  
                               u5490 1AD8                                 u5626 2918  
                               u5730 2150                                 u5650 203E  
                               u5571 1BFE                                 u5491 1AD4  
                               u5731 214C                                 u5651 203A  
                               u5635 2700                                 u5811 2E68  
                               u5580 1C36                                 u5740 221A  
                               u5660 2052                                 u5636 270A  
                               u5581 1C32                                 u5741 2216  
                               u5661 204E                                 u5637 2722  
                               u5821 2E7A                ??_InterruptInitialize 009F  
                               u5590 1C66                                 u5750 222C  
                               u5670 2064                                 u5591 1C62  
                               u5751 2228                                 u5671 2060  
                               u5831 2E9A                                 u5680 207E  
                               u5681 207A                                 u5690 20AE  
                               u5691 20AA                                 u4980 062A  
                               u4981 0626                                 u4990 0640  
                               u4991 063C                         _PWMSetPeriod 2D0A  
                               _flag 0073                                 _atoi 29F0  
                               _main 3144                        i1___flmul@grs 001C  
                    ??_AdcInitialize 00A0                                 fsr1h 0FE2  
                               fsr2h 0FDA                                 indf1 0FE7  
                               indf2 0FDF                                 fsr1l 0FE1  
                               fsr2l 0FD9                                 btemp 0079  
                               prodh 0FF4                                 prodl 0FF3  
                     i1___fladd@aexp 004E                       i1___fladd@bexp 004F  
                               start 01AC                      ___fldiv@new_exp 0185  
                    __end_of_HighIsr 307A                         ___param_bank 0000  
                      _PWMInitialize 2FA8                       i1___fldiv@aexp 0040  
                     i1___fldiv@bexp 003F                     _ButtonInitialize 30A2  
              ??_ComponentInitialize 01BA                       i1___fldiv@sign 0038  
                      ___fltol@sign1 019D                                ?_atoi 0001  
                    __end_of___fladd 0B5A                                ?_main 0001  
                    __end_of___fldiv 1C82                      __end_of___flmul 1438  
                    __end_of___fltol 2C04                                _IRCF0 7E9C  
                              _IRCF1 7E9D                                _IRCF2 7E9E  
                              i1l212 30DA                                i1l215 30EC  
                              i1l209 3142                                i1l233 30A0  
                              i1l227 2F70                                i1l164 316E  
                              i1l229 2FA6                                i1l317 0184  
                              i1l247 2F10                                i1l617 2D08  
                              i2l307 3058                                i2l309 3076  
                              i1l902 2010                                i1l904 1E74  
                              i1l913 1EBA                                i1l914 1ED8  
                              i1l850 0CF6                                i1l915 1F30  
                              i1l907 1E38                                i1l916 1F1E  
                              i1l941 16F2                                i1l942 1710  
                              i1l934 14FC                                i1l862 0EEA  
                              i1l951 181E                                i1l943 1768  
                              i1l944 1756                                i1l848 0D42  
                              i1l881 0FD2                                i1l865 0E5C  
                              i1l857 100E                                i1l849 0D30  
                              i1l938 185C                                i1l874 0F2A  
                              i1l875 0F18                                i1l982 250A  
                              i1l975 2472                                i1l978 25CE  
                              i1l989 2566                                _RCREG 0FAE  
                              _SPBRG 0FAF                                _TXREG 0FAD  
                     i1___flmul@aexp 0020                       i1___flmul@bexp 0021  
                     i1___flmul@sign 001B                       i1___flmul@temp 0026  
                     i1___flmul@prod 0022                                atoi@n 0007  
                              atoi@s 0001                                _state 00DD  
           ??_UartCopyBufferToString 0002                                tablat 0FF5  
                     i1___fltol@exp1 004A             __end_of_SystemInitialize 2EC0  
       __end_ofi1_Timer2GetPrescaler 3170                                plusw0 0FEB  
                              plusw1 0FE3                                plusw2 0FDB  
         __end_of_AdcEnableInterrupt 30D8                    ??_UartReceiveChar 0002  
                              ttemp5 007A                                ttemp6 007D  
                              ttemp7 0081                        ??_SetBaudRate 009F  
                              status 0FD8                                wtemp8 007A  
                    i1___fladd@signs 004D                       ?_PWMInitialize 01AC  
                    __initialization 2DD2                         __end_of_atoi 2AFC  
                       __end_of_main 3150                PWMSetPeriod@period_ms 019F  
                  ??_PWMSetDutyCycle 01A3                               ??_atoi 0003  
                             ??_main 00CC                          ?i1___xxtofl 0001  
                      __activetblptr 0001                      _UartClearBuffer 3136  
              PWMSetPeriod@prescaler 01A5               ??_OscillatorInitialize 009F  
                     _UartInitialize 2F12            UartInitialize@rx_priority 00A0  
                             _ADCON1 0FC1                               _ADRESH 0FC4  
                             _CCPR1L 0FBE                               i1l1004 2AF2  
                             i1l1007 2AFA                               i1l3200 30DA  
                             i1l3202 30E8                               i1l3204 3166  
                             i1l3300 1D90                               i1l3220 2C6E  
                             i1l3212 2C2E                               i1l3310 1DCE  
                             i1l3302 1DA0                               i1l3230 2C9E  
                             i1l3222 2C7C                               i1l3214 2C58  
                             i1l3206 2C04                               i1l3320 1E14  
                             i1l3312 1DDE                               i1l3304 1DA0  
                             i1l3400 148A                               i1l3240 2CC8  
                             i1l3232 2CA8                               i1l3216 2C5A  
                             i1l3208 2C1A                               i1l3330 1E62  
                             i1l3322 1E28                               i1l3314 1DEE  
                             i1l3250 1C82                               i1l3410 14B6  
                             i1l3402 149A                               i1l3242 2CD8  
                             i1l3218 2C6A                               i1l3340 1EAA  
                             i1l3332 1E72                               i1l3324 1E36  
                             i1l3316 1DFE                               i1l3308 1DB4  
                             i1l3260 1CBE                               i1l3252 1C8E  
                             i1l3500 1822                               i1l3420 150C  
                             i1l3412 14C6                               i1l3404 14A0  
                             i1l3244 2CE8                               i1l3228 2C94  
                             i1l3342 1EB8                               i1l3334 1E84  
                             i1l3326 1E42                               i1l3318 1E04  
                             i1l3270 1CEC                               i1l3262 1CCE  
                             i1l3254 1C9C                               i1l3510 184C  
                             i1l3502 1832                               i1l3430 1546  
                             i1l3422 151C                               i1l3414 14D6  
                             i1l3406 14A6                               i1l3246 2CF8  
                             i1l3238 2CBC                               i1l3600 2F6C  
                             i1l3352 1F40                               i1l3360 1F88  
                             i1l3336 1E9A                               i1l3344 1ECA  
                             i1l3328 1E60                               i1l3280 1D22  
                             i1l3272 1CF2                               i1l3264 1CD0  
                             i1l3256 1C9E                               i1l3504 1840  
                             i1l3440 1598                               i1l3432 155C  
                             i1l3416 14E6                               i1l3408 14B4  
                             i1l3520 2482                               i1l3610 2FA0  
                             i1l3602 2F74                               i1l3370 1FEC  
                             i1l3362 1FA2                               i1l3354 1F4C  
                             i1l3346 1EE8                               i1l3338 1EA0  
                             i1l3290 1D60                               i1l3282 1D32  
                             i1l3274 1D00                               i1l3258 1CAE  
                             i1l3266 1CD6                               i1l3506 1842  
                             i1l3450 15DE                               i1l3442 15A6  
                             i1l3434 1568                               i1l3426 1530  
                             i1l3418 14EC                               i1l3530 24C0  
                             i1l3522 2498                               i1l3514 241E  
                             i1l3612 307A                               i1l3604 2F86  
                             i1l3372 1FF0                               i1l3364 1FB8  
                             i1l3356 1F5A                               i1l3348 1F16  
                             i1l3292 1D70                               i1l3284 1D34  
                             i1l3276 1D02                               i1l3268 1CE6  
                             i1l3508 1848                               i1l3460 164C  
                             i1l3452 15F8                               i1l3444 15B2  
                             i1l3436 1580                               i1l3428 153C  
                             i1l3540 2548                               i1l3532 24F2  
                             i1l3516 242E                               i1l3700 0BBE  
                             i1l3630 2F06                               i1l3622 2EC0  
                             i1l3614 308C                               i1l3606 2F8C  
                             i1l3374 1FFE                               i1l3366 1FD2  
                             i1l3358 1F84                               i1l3294 1D78  
                             i1l3278 1D12                               i1l3286 1D3A  
                             i1l3470 16E2                               i1l3462 1676  
                             i1l3454 1608                               i1l3446 15C2  
                             i1l3438 158C                               i1l3390 1452  
                             i1l3550 259E                               i1l3542 2556  
                             i1l3534 24F4                               i1l3526 24AC  
                             i1l3518 243C                               i1l3710 0BEC  
                             i1l3702 0BC4                               i1l3624 2ECC  
                             i1l3608 2F9C                               i1l3640 29F0  
                             i1l3376 2004                               i1l3368 1FEA  
                             i1l3296 1D7C                               i1l3288 1D4A  
                             i1l3472 16F0                               i1l3464 16AC  
                             i1l3456 1624                               i1l3448 15CE  
                             i1l3392 1454                               i1l3552 25AE  
                             i1l3544 2574                               i1l3536 2500  
                             i1l3528 24B4                               i1l3800 0DC0  
                             i1l3720 0C20                               i1l3712 0BEE  
                             i1l3704 0BD6                               i1l3626 2EE4  
                             i1l3618 3092                               i1l3650 2A36  
                             i1l3642 29F8                               i1l3378 2006  
                             i1l3482 1778                               i1l3490 17C0  
                             i1l3474 1702                               i1l3466 16BA  
                             i1l3458 1630                               i1l3394 1464  
                             i1l3386 1438                               i1l3554 25BC  
                             i1l3546 2576                               i1l3538 253C  
                             i1l3810 0E2C                               i1l3802 0DCA  
                             i1l3730 0C5A                               i1l3714 0BFE  
                             i1l3722 0C26                               i1l3706 0BD8  
                             i1l3628 2EE8                               i1l3660 2A74  
                             i1l3652 2A4E                               i1l3644 29FE  
                             i1l3492 17DA                               i1l3484 1784  
                             i1l3476 1720                               i1l3468 16D8  
                             i1l3396 1474                               i1l3388 1444  
                             i1l3556 25BE                               i1l3548 257A  
                             i1l3812 0E3C                               i1l3804 0DD0  
                             i1l3740 0C6E                               i1l3732 0C5E  
                             i1l3724 0C36                               i1l3716 0C0E  
                             i1l3708 0BDE                               i1l3654 2A52  
                             i1l3646 2A00                               i1l3494 17EE  
                             i1l3486 1792                               i1l3478 174E  
                             i1l3398 1484                               i1l3670 273E  
                             i1l3830 0EBE                               i1l3822 0E96  
                             i1l3806 0DF6                               i1l3814 0E4C  
                             i1l3750 0C82                               i1l3742 0C72  
                             i1l3734 0C62                               i1l3726 0C48  
                             i1l3718 0C1E                               i1l3664 2AA8  
                             i1l3656 2A58                               i1l3648 2A18  
                             i1l3496 1808                               i1l3488 17BC  
                             i1l3680 288E                               i1l3672 274E  
                             i1l3840 0EFA                               i1l3832 0EC6  
                             i1l3824 0EA0                               i1l3816 0E72  
                             i1l3808 0E2A                               i1l3752 0C86  
                             i1l3744 0C76                               i1l3736 0C66  
                             i1l3728 0C56                               i1l3760 0C96  
                             i1l3920 003E                               i1l3586 3136  
                             i1l3666 2AC6                               i1l3498 1818  
                             i1l3674 275A                               i1l3850 0F54  
                             i1l3842 0F10                               i1l3834 0ECA  
                             i1l3826 0EAE                               i1l3818 0E82  
                             i1l3770 0D10                               i1l3762 0CC2  
                             i1l3754 0C8A                               i1l3746 0C7A  
                             i1l3738 0C6A                               i1l3690 0B86  
                             i1l3682 0B5A                               i1l3930 0082  
                             i1l3922 004C                               i1l3588 313E  
                             i1l3668 2AD6                               i1l3676 27B2  
                             i1l3860 0FD0                               i1l3852 0F8E  
                             i1l3836 0EDA                               i1l3828 0EB0  
                             i1l3780 0D50                               i1l3772 0D14  
                             i1l3764 0CDE                               i1l3756 0C8E  
                             i1l3748 0C7E                               i1l3692 0B96  
                             i1l3684 0B66                               i1l3940 00D8  
                             i1l3932 00AA                               i1l3924 0058  
                             i1l3598 2F5E                               i1l3678 2844  
                             i1l3870 0FFC                               i1l3862 0FE0  
                             i1l3846 0F3A                               i1l3854 0F90  
                             i1l3838 0EDC                               i1l3790 0D92  
                             i1l3782 0D60                               i1l3774 0D22  
                             i1l3766 0CEE                               i1l3758 0C92  
                             i1l3694 0BA6                               i1l3686 0B74  
                             i1l3942 0180                               i1l3934 00BE  
                             i1l3926 006A                               i1l3872 0FFE  
                             i1l3864 0FE6                               i1l3856 0FA0  
                             i1l3848 0F46                               i1l3792 0DA0  
                             i1l3776 0D24                               i1l3768 0D04  
                             i1l3696 0BA8                               i1l3688 0B76  
                             i1l3944 0182                               i1l3928 0072  
                             i1l3936 00C2                               i2l2450 303A  
                             i1l3866 0FE8                               i1l3858 0FB0  
                             i1l3794 0DAC                               i1l3786 0D74  
                             i1l3778 0D2E                               i1l3698 0BAE  
                             i1l3938 00D0                               i2l2452 3048  
                             i1l3868 0FEE                               i1l3796 0DB0  
                             i1l3788 0D84                               i2l2454 3056  
                             i1l3798 0DBE                               i2l2456 3066  
                             i2l2458 3074                        ??_UartGetChar 0001  
                          ??_HighIsr 0001            RxEnableInterrupt@priority 009F  
                   __end_of___xxtofl 241C                __end_of_LedInitialize 3126  
                             _LowIsr 0018                  __end_of_SetBaudRate 315C  
          UartInitialize@tx_priority 00A1                            ??___fladd 018D  
                          ??___fldiv 00C0                    ?_Timer2Initialize 019F  
                          ??___flmul 00A7                            ??___fltol 0199  
                             clear_0 2E1A                               clear_1 2E2C  
                             clear_2 2E46                   ??_Timer2Initialize 01A7  
                             isa$std 0001                    __end_ofi1___fladd 1010  
                  __end_ofi1___fldiv 2012                    __end_ofi1___flmul 185E  
                  __end_ofi1___fltol 2D0A               __end_of_UartInitialize 2F5E  
                       __mediumconst 0000                               tblptrh 0FF7  
                             tblptrl 0FF6                               tblptru 0FF8  
                    i1___fltol@sign1 0049                         ___xxtofl@arg 00A9  
                       ___xxtofl@exp 00A8                         ___xxtofl@val 009F  
                         __accesstop 0080              __end_of__initialization 2E4C  
                    ??_PWMInitialize 00CC                        ___rparam_used 0001  
          AdcInitialize@int_priority 00A0                           ___fltol@f1 0195  
         __end_of_Timer2GetPrescaler 3166                  __end_of_UartGetChar 30A2  
                     __pcstackCOMRAM 0001                         __pidataBANK0 3126  
                       __pidataBANK1 3180              __end_of_UartClearBuffer 3144  
               i1_Timer2GetPrescaler 3166                      ?_UartInitialize 00A0  
                    _uart_buffer_idx 0075                          _LowIsr$2191 0094  
                        _LowIsr$2192 0098                           __pbssBANK0 00DB  
                         __pbssBANK1 0100             __end_of_ButtonInitialize 30C2  
          Timer2Initialize@period_ms 01A3                       i1___xxtofl@arg 000B  
                        _SetBaudRate 3150                       i1___xxtofl@exp 000A  
                     i1___xxtofl@val 0001                        ?_UartSendChar 0001  
                            ?_LowIsr 0001            Timer2Initialize@prescaler 019F  
             _UartCopyBufferToString 2EC0               PWMInitialize@period_ms 01AC  
              ?i1_Timer2GetPrescaler 0001                            ?___xxtofl 009F  
                    _UartReceiveChar 2F5E            UartCopyBufferToString@str 0001  
        __end_of_InterruptInitialize 3180                      _Timer2Prescaler 01D3  
                  ?_SystemInitialize 0001                          _UartGetChar 307A  
                            _HighIsr 0008                       ??_UartSendChar 0001  
                    _PWMSetDutyCycle 25D0                   ??_SystemInitialize 00CC  
              __end_of_AdcInitialize 3038                          _MotorDegree 0077  
                            __Hparam 0000                              __Lparam 0000  
        __end_of_ComponentInitialize 2264                              ___fladd 0606  
                            ___fldiv 185E                              ___flmul 1010  
                            ___fltol 2AFC                     ?_UartClearBuffer 0001  
                 _AdcEnableInterrupt 30C2                         __psmallconst 0600  
                            __pcinit 2DD2                              __ramtop 0600  
                       ??i1___xxtofl 0005                              __ptext0 3144  
                            __ptext1 2E5E                              __ptext2 25D0  
                            __ptext3 3170                              __ptext4 2012  
                            __ptext5 2F12                              __ptext6 30EE  
                            __ptext7 3150                              __ptext8 3102  
                            __ptext9 2FA8                            _T2CONbits 0FCA  
                ?_AdcEnableInterrupt 0001                           ??___xxtofl 00A3  
                      _duty_cycle_us 00D9                              atoi@neg 0006  
                     __pintcode_body 3038                 end_of_initialization 2E4C  
                            int_func 3038                 ??_AdcEnableInterrupt 009F  
                      UartSendChar@c 0001                   __end_ofi1___xxtofl 25D0  
           PWMSetDutyCycle@prescaler 01B0                            _RCSTAbits 0FAB  
                            postdec1 0FE5                              postdec2 0FDD  
                            postinc0 0FEE                              postinc2 0FDE  
            __end_of_UartReceiveChar 2FA8               ??i1_Timer2GetPrescaler 0003  
             i1_PWMSetDutyCycle$2193 0058                          ___fladd@grs 0194  
                      ___xxtofl@sign 00A7                            _TRISAbits 0F92  
                          _TRISBbits 0F93                            _TRISCbits 0F94  
                          i1___fladd 0B5A                            i1___fldiv 1C82  
                          i1___flmul 1438                          ___fldiv@grs 0187  
                          i1___fltol 2C04                          ___fldiv@rem 0180  
           _ComponentInitialize$2084 01BB             _ComponentInitialize$2085 01BF  
            __end_of_PWMSetDutyCycle 273E                SystemInitialize@F2690 00CC  
              SystemInitialize@F2688 00D4           i1PWMSetDutyCycle@prescaler 005C  
                        ___flmul@grs 00AC                          _CCP1CONbits 0FBD  
                          _TXSTAbits 0FAC                       __end_of_LowIsr 01AC  
                   ??_UartInitialize 00A1                          _BAUDCONbits 0FB8  
               _PWMSetDutyCycle$2083 01AC            TxEnableInterrupt@priority 009F  
                 _Timer2GetPrescaler 315C                            LowIsr@val 009C  
                          LowIsr@str 0080                 __end_of_UartSendChar 30EE  
                start_initialization 2DD2     SystemInitialize@component_config 01C4  
                         ?i1___fladd 0041                           ?i1___fldiv 0028  
                         ?i1___flmul 000F                           ?i1___fltol 0041  
                ?_Timer2GetPrescaler 009F                        ?_PWMSetPeriod 019F  
                  ?_ButtonInitialize 009F                         ?_SetBaudRate 0001  
                 ??_ButtonInitialize 00A1                             ??_LowIsr 0066  
              __end_of_PWMInitialize 2FF0              ?_UartCopyBufferToString 0001  
               ??_Timer2GetPrescaler 00A1                     UartReceiveChar@c 0002  
                  _RxEnableInterrupt 3102                          __pdataBANK0 00CC  
                        __pdataBANK1 01D1                     ?_UartReceiveChar 0001  
                 ?_RxEnableInterrupt 0001                            ___fladd@a 00C8  
                          ___fladd@b 00C4                            ___fldiv@a 00BC  
                          ___fldiv@b 00B8                          __pbssBIGRAM 01D5  
                          ___flmul@a 00A3                            ___flmul@b 009F  
                        __pbssCOMRAM 006F                        __pcstackBANK0 0080  
                      __pcstackBANK1 0180                  ??_RxEnableInterrupt 009F  
                   ?_PWMSetDutyCycle 019F                      i1___xxtofl@sign 0009  
                     ??_PWMSetPeriod 01A3                         ?_UartGetChar 0001  
                           ?_HighIsr 0001                    i1___fldiv@new_exp 0039  
     __end_of_UartCopyBufferToString 2F12                        _LedInitialize 3116  
               i1PWMSetDutyCycle@val 005E            __end_of_RxEnableInterrupt 3116  
                          __pintcode 0008                             ?___fladd 00C4  
                           ?___fldiv 00B8                             ?___flmul 009F  
                           ?___fltol 0195           AdcEnableInterrupt@priority 009F  
                        __pintcodelo 0018                          __smallconst 0600  
         Timer2Initialize@postscaler 01A1                          ??i1___fladd 0049  
                        ??i1___fldiv 0030                     _Timer2Initialize 28A4  
                        ??i1___flmul 0017                          ??i1___fltol 0045  
     i1PWMSetDutyCycle@duty_cycle_us 004B                       ?_LedInitialize 0001  
                           _IPR1bits 0F9F                             _PIE1bits 0F9D  
                           i1u400_20 1FA2                             i1u400_21 1F9E  
                           i1u401_20 1FD2                             i1u401_21 1FCE  
                           i1u402_20 1FFE                             i1u410_20 151C  
                           i1u402_21 1FFA                             i1u410_21 1518  
                           i1u411_20 1696                             i1u403_20 1452  
                           i1u403_21 144E                             i1u411_25 168C  
                           i1u420_20 1808                             i1u412_20 16F0  
                           i1u404_20 1464                             i1u420_21 1804  
                           i1u412_21 16EC                             i1u404_21 1460  
                           i1u421_20 1840                             i1u413_20 1710  
                           i1u405_20 1474                             i1u421_21 183C  
                           i1u413_21 170C                             i1u405_21 1470  
                           i1u414_20 1720                             i1u406_20 14B4  
                           i1u430_20 25AE                             i1u422_20 242E  
                           i1u414_21 171C                             i1u406_21 14B0  
                           i1u430_21 25AA                             i1u422_21 242A  
                           i1u415_20 174E                             i1u407_20 14C6  
                           i1u431_20 25BC                             i1u423_20 243C  
                           i1u415_21 174A                             i1u407_21 14C2  
                           i1u431_21 25B8                             i1u423_21 2438  
                           i1u440_20 308C                             i1u416_20 1764  
                           i1u408_20 14D6                             i1u424_20 2498  
                           i1u440_21 3088                             i1u416_21 1760  
                           i1u408_21 14D2                             i1u424_21 2494  
                           i1u441_20 2F06                             i1u417_20 1778  
                           i1u409_20 150C                             i1u425_20 24EE  
                           i1u441_21 2F02                             i1u417_21 1774  
                           i1u409_21 1508                             i1u425_21 24EA  
                           i1u450_20 2AD6                             i1u418_20 1792  
                           i1u426_20 2538                             i1u450_21 2AD2  
                           i1u418_21 178E                             i1u426_21 2534  
                           i1u419_20 17DA                             i1u427_20 2556  
                           i1u419_21 17D6                             i1u427_21 2552  
                           i1u451_25 2868                             i1u451_26 2872  
                           i1u451_27 288A                             i1u372_20 30E8  
                           i1u380_20 1C9C                             i1u428_20 2566  
                           i1u460_20 0C56                             i1u452_20 0B74  
                           i1u372_21 30E4                             i1u380_21 1C98  
                           i1u428_21 2562                             i1u460_21 0C52  
                           i1u452_21 0B70                             i1u445_20 2A18  
                           i1u381_20 1CAE                             i1u373_20 2C1A  
                           i1u429_20 2574                             i1u461_20 0CC2  
                           i1u453_20 0B86                             i1u445_21 2A14  
                           i1u381_21 1CAA                             i1u373_21 2C16  
                           i1u429_21 2570                             i1u461_21 0CBE  
                           i1u453_21 0B82                             i1u438_20 2F6C  
                           i1u446_20 2A36                             i1u390_20 1E60  
                           i1u382_20 1CBE                             i1u374_20 2C4E  
                           i1u470_20 0DA0                             i1u462_20 0CDA  
                           i1u454_20 0B96                             i1u438_21 2F68  
                           i1u446_21 2A32                             i1u390_21 1E5C  
                           i1u382_21 1CBA                             i1u470_21 0D9C  
                           i1u462_21 0CD4                             i1u454_21 0B92  
                           i1u374_25 2C44                             i1u439_20 2F86  
                           i1u447_20 2A4E                             i1u391_20 1E84  
                           i1u383_20 1D00                             i1u375_20 2C7C  
                           i1u471_20 0DBE                             i1u463_20 0CDC  
                           i1u455_20 0BD6                             i1u439_21 2F82  
                           i1u447_21 2A4A                             i1u391_21 1E80  
                           i1u383_21 1CFC                             i1u375_21 2C78  
                           i1u471_21 0DBA                             i1u455_21 0BD2  
                           i1u448_20 2A70                             i1u392_20 1E9A  
                           i1u384_20 1D12                             i1u376_20 2C90  
                           i1u480_20 0EFA                             i1u472_20 0DF6  
                           i1u464_20 0D04                             i1u456_20 0BEC  
                           i1u448_21 2A6C                             i1u392_21 1E96  
                           i1u384_21 1D0E                             i1u376_21 2C8C  
                           i1u480_21 0EF6                             i1u472_21 0DF2  
                           i1u464_21 0D00                             i1u456_21 0BE8  
                           i1u449_20 2AC6                             i1u393_20 1EB8  
                           i1u385_20 1D22                             i1u377_20 2CB8  
                           i1u481_20 0F10                             i1u473_20 0E3C  
                           i1u465_20 0D22                             i1u457_20 0BFE  
                           i1u449_21 2AC2                             i1u393_21 1EB4  
                           i1u385_21 1D1E                             i1u377_21 2CB4  
                           i1u481_21 0F0C                             i1u473_21 0E38  
                           i1u465_21 0D1E                             i1u457_21 0BFA  
                           i1u394_20 1ED8                             i1u386_20 1D60  
                           i1u378_20 2CD8                             i1u490_20 0FFC  
                           i1u482_20 0F26                             i1u474_20 0E72  
                           i1u466_20 0D42                             i1u458_20 0C0E  
                           i1u394_21 1ED4                             i1u386_21 1D5C  
                           i1u378_21 2CD4                             i1u490_21 0FF8  
                           i1u482_21 0F22                             i1u474_21 0E6E  
                           i1u466_21 0D3E                             i1u458_21 0C0A  
                           i1u395_20 1EE8                             i1u387_20 1DA0  
                           i1u379_20 2CE8                             i1u483_20 0F3A  
                           i1u475_20 0E82                             i1u467_20 0D50  
                           i1u459_20 0C48                             i1u395_21 1EE4  
                           i1u387_21 1D9C                             i1u379_21 2CE4  
                           i1u483_21 0F36                             i1u475_21 0E7E  
                           i1u467_21 0D4C                             i1u459_21 0C44  
                           i1u396_20 1F16                             i1u388_20 1E14  
                           i1u484_20 0F54                             i1u476_20 0EAE  
                           i1u468_20 0D60                             i1u396_21 1F12  
                           i1u388_21 1E10                             i1u484_21 0F50  
                           i1u476_21 0EAA                             i1u468_21 0D5C  
                           i2u244_40 3048                             i2u244_41 3044  
                           i1u397_20 1F2C                             i1u389_20 1E36  
                           i1u485_20 0F8E                             i1u477_20 0EBE  
                           i1u469_20 0D92                             i1u397_21 1F28  
                           i1u389_21 1E32                             i1u485_21 0F8A  
                           i1u477_21 0EBA                             i1u469_21 0D8E  
                           i2u245_40 3056                             i2u245_41 3052  
                           i1u398_20 1F40                             i1u486_20 0FA0  
                           i1u478_20 0EDA                             i1u398_21 1F3C  
                           i1u486_21 0F9C                             i1u478_21 0ED6  
                           i2u246_40 3066                             i2u246_41 3062  
                           i1u399_20 1F5A                             i1u487_20 0FB0  
                           i1u479_20 0EEA                             i1u495_20 004C  
                           i1u399_21 1F56                             i1u487_21 0FAC  
                           i1u479_21 0EE6                             i1u495_21 0048  
                           i2u247_40 3074                             i2u247_41 3070  
                           i1u488_20 0FD0                             i1u496_20 006A  
                           i1u488_21 0FCC                             i1u496_21 0066  
                           i1u489_20 0FE0                             i1u497_20 00D0  
                           i1u489_21 0FDC                             i1u497_21 00CC  
                           _PIR1bits 0F9E                             _RCONbits 0FD0  
                         _ADCON0bits 0FC2                           _ADCON1bits 0FC1  
                         _ADCON2bits 0FC0                            _start_val 00DB  
                  _TxEnableInterrupt 30EE                            copy_data0 2DE6  
                          copy_data1 2E06                    _pitch_duty_cycles 01D5  
                           LowIsr@ch 009E                   ?_TxEnableInterrupt 0001  
                   _Timer2Postscaler 01D1                             __Hrparam 0000  
                       _UartSendChar 30D8                  ??_TxEnableInterrupt 009F  
                           __Lrparam 0000                         __Lsmallconst 0600  
       __end_of_OscillatorInitialize 3178                 __end_of_PWMSetPeriod 2DD2  
                           ___xxtofl 2264            __end_of_TxEnableInterrupt 3102  
                           __ptext10 28A4                             __ptext11 2D0A  
                           __ptext20 30A2                             __ptext12 2264  
                           __ptext21 2FF0                             __ptext13 2AFC  
                           __ptext30 3166                             __ptext22 30C2  
                           __ptext14 1010                             __ptext31 29F0  
                           __ptext15 185E                             __ptext32 2F5E  
                           __ptext24 0B5A                             __ptext16 0606  
                           __ptext33 30D8                             __ptext25 273E  
                           __ptext17 315C                             __ptext34 307A  
                           __ptext26 241C                             __ptext18 3116  
                           __ptext35 2EC0                             __ptext27 2C04  
                           __ptext19 3178                             __ptext36 3136  
                           __ptext28 1438                             __ptext29 1C82  
                    ??_LedInitialize 009F                        _AdcInitialize 2FF0  
                           isa$xinst 0000            ButtonInitialize@interrupt 009F  
                           int$flags 0079             Timer2Initialize@priority 01AB  
                   _SystemInitialize 2E5E                           _INTCONbits 0FF2  
         SystemInitialize@int_config 01CC                             intlevel1 0000  
                           intlevel2 0000                    ??_UartClearBuffer 0001  
                       _prev_adc_val 00DF                       ?_AdcInitialize 0001  
ComponentInitialize@component_config 01B2                   PWMSetDutyCycle@val 01B2  
           __end_of_Timer2Initialize 29F0         PWMSetDutyCycle@duty_cycle_us 019F  
            UartCopyBufferToString@i 0003                  _InterruptInitialize 3178  
                        _uart_buffer 0100                        ___fladd@signs 0191  
               _OscillatorInitialize 3170                 ?_InterruptInitialize 0001  
                  i1_PWMSetDutyCycle 273E                         ___fladd@aexp 0192  
      ComponentInitialize@components 01C3                         ___fladd@bexp 0193  
                _ComponentInitialize 2012                   ?i1_PWMSetDutyCycle 004B  
